ARM GAS  /tmp/ccXjZKHH.s 			page 1


   1              		.cpu cortex-m4
   2              		.eabi_attribute 27, 1
   3              		.eabi_attribute 28, 1
   4              		.eabi_attribute 20, 1
   5              		.eabi_attribute 21, 1
   6              		.eabi_attribute 23, 3
   7              		.eabi_attribute 24, 1
   8              		.eabi_attribute 25, 1
   9              		.eabi_attribute 26, 1
  10              		.eabi_attribute 30, 1
  11              		.eabi_attribute 34, 1
  12              		.eabi_attribute 18, 4
  13              		.file	"usbh_ctlreq.c"
  14              		.text
  15              	.Ltext0:
  16              		.cfi_sections	.debug_frame
  17              		.section	.text.USBH_ParseDevDesc,"ax",%progbits
  18              		.align	1
  19              		.arch armv7e-m
  20              		.syntax unified
  21              		.thumb
  22              		.thumb_func
  23              		.fpu fpv4-sp-d16
  25              	USBH_ParseDevDesc:
  26              	.LVL0:
  27              	.LFB142:
  28              		.file 1 "Middlewares/ST/STM32_USB_Host_Library/Core/Src/usbh_ctlreq.c"
   1:Middlewares/ST/STM32_USB_Host_Library/Core/Src/usbh_ctlreq.c **** /**
   2:Middlewares/ST/STM32_USB_Host_Library/Core/Src/usbh_ctlreq.c ****   ******************************************************************************
   3:Middlewares/ST/STM32_USB_Host_Library/Core/Src/usbh_ctlreq.c ****   * @file    usbh_ctlreq.c
   4:Middlewares/ST/STM32_USB_Host_Library/Core/Src/usbh_ctlreq.c ****   * @author  MCD Application Team
   5:Middlewares/ST/STM32_USB_Host_Library/Core/Src/usbh_ctlreq.c ****   * @brief   This file implements the control requests for device enumeration
   6:Middlewares/ST/STM32_USB_Host_Library/Core/Src/usbh_ctlreq.c ****   ******************************************************************************
   7:Middlewares/ST/STM32_USB_Host_Library/Core/Src/usbh_ctlreq.c ****   * @attention
   8:Middlewares/ST/STM32_USB_Host_Library/Core/Src/usbh_ctlreq.c ****   *
   9:Middlewares/ST/STM32_USB_Host_Library/Core/Src/usbh_ctlreq.c ****   * <h2><center>&copy; Copyright (c) 2015 STMicroelectronics.
  10:Middlewares/ST/STM32_USB_Host_Library/Core/Src/usbh_ctlreq.c ****   * All rights reserved.</center></h2>
  11:Middlewares/ST/STM32_USB_Host_Library/Core/Src/usbh_ctlreq.c ****   *
  12:Middlewares/ST/STM32_USB_Host_Library/Core/Src/usbh_ctlreq.c ****   * This software component is licensed by ST under Ultimate Liberty license
  13:Middlewares/ST/STM32_USB_Host_Library/Core/Src/usbh_ctlreq.c ****   * SLA0044, the "License"; You may not use this file except in compliance with
  14:Middlewares/ST/STM32_USB_Host_Library/Core/Src/usbh_ctlreq.c ****   * the License. You may obtain a copy of the License at:
  15:Middlewares/ST/STM32_USB_Host_Library/Core/Src/usbh_ctlreq.c ****   *                      www.st.com/SLA0044
  16:Middlewares/ST/STM32_USB_Host_Library/Core/Src/usbh_ctlreq.c ****   *
  17:Middlewares/ST/STM32_USB_Host_Library/Core/Src/usbh_ctlreq.c ****   ******************************************************************************
  18:Middlewares/ST/STM32_USB_Host_Library/Core/Src/usbh_ctlreq.c ****   */
  19:Middlewares/ST/STM32_USB_Host_Library/Core/Src/usbh_ctlreq.c **** 
  20:Middlewares/ST/STM32_USB_Host_Library/Core/Src/usbh_ctlreq.c **** /* Includes ------------------------------------------------------------------*/
  21:Middlewares/ST/STM32_USB_Host_Library/Core/Src/usbh_ctlreq.c **** #include "usbh_ctlreq.h"
  22:Middlewares/ST/STM32_USB_Host_Library/Core/Src/usbh_ctlreq.c **** 
  23:Middlewares/ST/STM32_USB_Host_Library/Core/Src/usbh_ctlreq.c **** /** @addtogroup USBH_LIB
  24:Middlewares/ST/STM32_USB_Host_Library/Core/Src/usbh_ctlreq.c ****   * @{
  25:Middlewares/ST/STM32_USB_Host_Library/Core/Src/usbh_ctlreq.c ****   */
  26:Middlewares/ST/STM32_USB_Host_Library/Core/Src/usbh_ctlreq.c **** 
  27:Middlewares/ST/STM32_USB_Host_Library/Core/Src/usbh_ctlreq.c **** /** @addtogroup USBH_LIB_CORE
  28:Middlewares/ST/STM32_USB_Host_Library/Core/Src/usbh_ctlreq.c ****   * @{
  29:Middlewares/ST/STM32_USB_Host_Library/Core/Src/usbh_ctlreq.c ****   */
  30:Middlewares/ST/STM32_USB_Host_Library/Core/Src/usbh_ctlreq.c **** 
ARM GAS  /tmp/ccXjZKHH.s 			page 2


  31:Middlewares/ST/STM32_USB_Host_Library/Core/Src/usbh_ctlreq.c **** /** @defgroup USBH_CTLREQ
  32:Middlewares/ST/STM32_USB_Host_Library/Core/Src/usbh_ctlreq.c ****   * @brief This file implements the standard requests for device enumeration
  33:Middlewares/ST/STM32_USB_Host_Library/Core/Src/usbh_ctlreq.c ****   * @{
  34:Middlewares/ST/STM32_USB_Host_Library/Core/Src/usbh_ctlreq.c ****   */
  35:Middlewares/ST/STM32_USB_Host_Library/Core/Src/usbh_ctlreq.c **** 
  36:Middlewares/ST/STM32_USB_Host_Library/Core/Src/usbh_ctlreq.c **** 
  37:Middlewares/ST/STM32_USB_Host_Library/Core/Src/usbh_ctlreq.c **** /** @defgroup USBH_CTLREQ_Private_Defines
  38:Middlewares/ST/STM32_USB_Host_Library/Core/Src/usbh_ctlreq.c ****   * @{
  39:Middlewares/ST/STM32_USB_Host_Library/Core/Src/usbh_ctlreq.c ****   */
  40:Middlewares/ST/STM32_USB_Host_Library/Core/Src/usbh_ctlreq.c **** /**
  41:Middlewares/ST/STM32_USB_Host_Library/Core/Src/usbh_ctlreq.c ****   * @}
  42:Middlewares/ST/STM32_USB_Host_Library/Core/Src/usbh_ctlreq.c ****   */
  43:Middlewares/ST/STM32_USB_Host_Library/Core/Src/usbh_ctlreq.c **** 
  44:Middlewares/ST/STM32_USB_Host_Library/Core/Src/usbh_ctlreq.c **** 
  45:Middlewares/ST/STM32_USB_Host_Library/Core/Src/usbh_ctlreq.c **** /** @defgroup USBH_CTLREQ_Private_TypesDefinitions
  46:Middlewares/ST/STM32_USB_Host_Library/Core/Src/usbh_ctlreq.c ****   * @{
  47:Middlewares/ST/STM32_USB_Host_Library/Core/Src/usbh_ctlreq.c ****   */
  48:Middlewares/ST/STM32_USB_Host_Library/Core/Src/usbh_ctlreq.c **** /**
  49:Middlewares/ST/STM32_USB_Host_Library/Core/Src/usbh_ctlreq.c ****   * @}
  50:Middlewares/ST/STM32_USB_Host_Library/Core/Src/usbh_ctlreq.c ****   */
  51:Middlewares/ST/STM32_USB_Host_Library/Core/Src/usbh_ctlreq.c **** 
  52:Middlewares/ST/STM32_USB_Host_Library/Core/Src/usbh_ctlreq.c **** 
  53:Middlewares/ST/STM32_USB_Host_Library/Core/Src/usbh_ctlreq.c **** 
  54:Middlewares/ST/STM32_USB_Host_Library/Core/Src/usbh_ctlreq.c **** /** @defgroup USBH_CTLREQ_Private_Macros
  55:Middlewares/ST/STM32_USB_Host_Library/Core/Src/usbh_ctlreq.c ****   * @{
  56:Middlewares/ST/STM32_USB_Host_Library/Core/Src/usbh_ctlreq.c ****   */
  57:Middlewares/ST/STM32_USB_Host_Library/Core/Src/usbh_ctlreq.c **** /**
  58:Middlewares/ST/STM32_USB_Host_Library/Core/Src/usbh_ctlreq.c ****   * @}
  59:Middlewares/ST/STM32_USB_Host_Library/Core/Src/usbh_ctlreq.c ****   */
  60:Middlewares/ST/STM32_USB_Host_Library/Core/Src/usbh_ctlreq.c **** 
  61:Middlewares/ST/STM32_USB_Host_Library/Core/Src/usbh_ctlreq.c **** 
  62:Middlewares/ST/STM32_USB_Host_Library/Core/Src/usbh_ctlreq.c **** /** @defgroup USBH_CTLREQ_Private_Variables
  63:Middlewares/ST/STM32_USB_Host_Library/Core/Src/usbh_ctlreq.c ****   * @{
  64:Middlewares/ST/STM32_USB_Host_Library/Core/Src/usbh_ctlreq.c ****   */
  65:Middlewares/ST/STM32_USB_Host_Library/Core/Src/usbh_ctlreq.c **** /**
  66:Middlewares/ST/STM32_USB_Host_Library/Core/Src/usbh_ctlreq.c ****   * @}
  67:Middlewares/ST/STM32_USB_Host_Library/Core/Src/usbh_ctlreq.c ****   */
  68:Middlewares/ST/STM32_USB_Host_Library/Core/Src/usbh_ctlreq.c **** 
  69:Middlewares/ST/STM32_USB_Host_Library/Core/Src/usbh_ctlreq.c **** /** @defgroup USBH_CTLREQ_Private_FunctionPrototypes
  70:Middlewares/ST/STM32_USB_Host_Library/Core/Src/usbh_ctlreq.c ****   * @{
  71:Middlewares/ST/STM32_USB_Host_Library/Core/Src/usbh_ctlreq.c ****   */
  72:Middlewares/ST/STM32_USB_Host_Library/Core/Src/usbh_ctlreq.c **** static USBH_StatusTypeDef USBH_HandleControl(USBH_HandleTypeDef *phost);
  73:Middlewares/ST/STM32_USB_Host_Library/Core/Src/usbh_ctlreq.c **** 
  74:Middlewares/ST/STM32_USB_Host_Library/Core/Src/usbh_ctlreq.c **** static void USBH_ParseDevDesc(USBH_DevDescTypeDef *dev_desc,
  75:Middlewares/ST/STM32_USB_Host_Library/Core/Src/usbh_ctlreq.c ****                               uint8_t *buf, uint16_t length);
  76:Middlewares/ST/STM32_USB_Host_Library/Core/Src/usbh_ctlreq.c **** 
  77:Middlewares/ST/STM32_USB_Host_Library/Core/Src/usbh_ctlreq.c **** static USBH_StatusTypeDef USBH_ParseCfgDesc(USBH_HandleTypeDef *phost,
  78:Middlewares/ST/STM32_USB_Host_Library/Core/Src/usbh_ctlreq.c ****                                             uint8_t *buf, uint16_t length);
  79:Middlewares/ST/STM32_USB_Host_Library/Core/Src/usbh_ctlreq.c **** 
  80:Middlewares/ST/STM32_USB_Host_Library/Core/Src/usbh_ctlreq.c **** static USBH_StatusTypeDef USBH_ParseEPDesc(USBH_HandleTypeDef *phost, USBH_EpDescTypeDef  *ep_descr
  81:Middlewares/ST/STM32_USB_Host_Library/Core/Src/usbh_ctlreq.c **** static void USBH_ParseStringDesc(uint8_t *psrc, uint8_t *pdest, uint16_t length);
  82:Middlewares/ST/STM32_USB_Host_Library/Core/Src/usbh_ctlreq.c **** static void USBH_ParseInterfaceDesc(USBH_InterfaceDescTypeDef  *if_descriptor, uint8_t *buf);
  83:Middlewares/ST/STM32_USB_Host_Library/Core/Src/usbh_ctlreq.c **** 
  84:Middlewares/ST/STM32_USB_Host_Library/Core/Src/usbh_ctlreq.c **** 
  85:Middlewares/ST/STM32_USB_Host_Library/Core/Src/usbh_ctlreq.c **** /**
  86:Middlewares/ST/STM32_USB_Host_Library/Core/Src/usbh_ctlreq.c ****   * @}
  87:Middlewares/ST/STM32_USB_Host_Library/Core/Src/usbh_ctlreq.c ****   */
ARM GAS  /tmp/ccXjZKHH.s 			page 3


  88:Middlewares/ST/STM32_USB_Host_Library/Core/Src/usbh_ctlreq.c **** 
  89:Middlewares/ST/STM32_USB_Host_Library/Core/Src/usbh_ctlreq.c **** 
  90:Middlewares/ST/STM32_USB_Host_Library/Core/Src/usbh_ctlreq.c **** /** @defgroup USBH_CTLREQ_Private_Functions
  91:Middlewares/ST/STM32_USB_Host_Library/Core/Src/usbh_ctlreq.c ****   * @{
  92:Middlewares/ST/STM32_USB_Host_Library/Core/Src/usbh_ctlreq.c ****   */
  93:Middlewares/ST/STM32_USB_Host_Library/Core/Src/usbh_ctlreq.c **** 
  94:Middlewares/ST/STM32_USB_Host_Library/Core/Src/usbh_ctlreq.c **** 
  95:Middlewares/ST/STM32_USB_Host_Library/Core/Src/usbh_ctlreq.c **** /**
  96:Middlewares/ST/STM32_USB_Host_Library/Core/Src/usbh_ctlreq.c ****   * @brief  USBH_Get_DevDesc
  97:Middlewares/ST/STM32_USB_Host_Library/Core/Src/usbh_ctlreq.c ****   *         Issue Get Device Descriptor command to the device. Once the response
  98:Middlewares/ST/STM32_USB_Host_Library/Core/Src/usbh_ctlreq.c ****   *         received, it parses the device descriptor and updates the status.
  99:Middlewares/ST/STM32_USB_Host_Library/Core/Src/usbh_ctlreq.c ****   * @param  phost: Host Handle
 100:Middlewares/ST/STM32_USB_Host_Library/Core/Src/usbh_ctlreq.c ****   * @param  length: Length of the descriptor
 101:Middlewares/ST/STM32_USB_Host_Library/Core/Src/usbh_ctlreq.c ****   * @retval USBH Status
 102:Middlewares/ST/STM32_USB_Host_Library/Core/Src/usbh_ctlreq.c ****   */
 103:Middlewares/ST/STM32_USB_Host_Library/Core/Src/usbh_ctlreq.c **** USBH_StatusTypeDef USBH_Get_DevDesc(USBH_HandleTypeDef *phost, uint8_t length)
 104:Middlewares/ST/STM32_USB_Host_Library/Core/Src/usbh_ctlreq.c **** {
 105:Middlewares/ST/STM32_USB_Host_Library/Core/Src/usbh_ctlreq.c ****   USBH_StatusTypeDef status;
 106:Middlewares/ST/STM32_USB_Host_Library/Core/Src/usbh_ctlreq.c **** 
 107:Middlewares/ST/STM32_USB_Host_Library/Core/Src/usbh_ctlreq.c ****   status = USBH_GetDescriptor(phost,
 108:Middlewares/ST/STM32_USB_Host_Library/Core/Src/usbh_ctlreq.c ****                               USB_REQ_RECIPIENT_DEVICE | USB_REQ_TYPE_STANDARD,
 109:Middlewares/ST/STM32_USB_Host_Library/Core/Src/usbh_ctlreq.c ****                               USB_DESC_DEVICE, phost->device.Data,
 110:Middlewares/ST/STM32_USB_Host_Library/Core/Src/usbh_ctlreq.c ****                               (uint16_t)length);
 111:Middlewares/ST/STM32_USB_Host_Library/Core/Src/usbh_ctlreq.c **** 
 112:Middlewares/ST/STM32_USB_Host_Library/Core/Src/usbh_ctlreq.c ****   if (status == USBH_OK)
 113:Middlewares/ST/STM32_USB_Host_Library/Core/Src/usbh_ctlreq.c ****   {
 114:Middlewares/ST/STM32_USB_Host_Library/Core/Src/usbh_ctlreq.c ****     /* Commands successfully sent and Response Received */
 115:Middlewares/ST/STM32_USB_Host_Library/Core/Src/usbh_ctlreq.c ****     USBH_ParseDevDesc(&phost->device.DevDesc, phost->device.Data,
 116:Middlewares/ST/STM32_USB_Host_Library/Core/Src/usbh_ctlreq.c ****                       (uint16_t)length);
 117:Middlewares/ST/STM32_USB_Host_Library/Core/Src/usbh_ctlreq.c ****   }
 118:Middlewares/ST/STM32_USB_Host_Library/Core/Src/usbh_ctlreq.c **** 
 119:Middlewares/ST/STM32_USB_Host_Library/Core/Src/usbh_ctlreq.c ****   return status;
 120:Middlewares/ST/STM32_USB_Host_Library/Core/Src/usbh_ctlreq.c **** }
 121:Middlewares/ST/STM32_USB_Host_Library/Core/Src/usbh_ctlreq.c **** 
 122:Middlewares/ST/STM32_USB_Host_Library/Core/Src/usbh_ctlreq.c **** 
 123:Middlewares/ST/STM32_USB_Host_Library/Core/Src/usbh_ctlreq.c **** /**
 124:Middlewares/ST/STM32_USB_Host_Library/Core/Src/usbh_ctlreq.c ****   * @brief  USBH_Get_CfgDesc
 125:Middlewares/ST/STM32_USB_Host_Library/Core/Src/usbh_ctlreq.c ****   *         Issues Configuration Descriptor to the device. Once the response
 126:Middlewares/ST/STM32_USB_Host_Library/Core/Src/usbh_ctlreq.c ****   *         received, it parses the configuration descriptor and updates the
 127:Middlewares/ST/STM32_USB_Host_Library/Core/Src/usbh_ctlreq.c ****   *         status.
 128:Middlewares/ST/STM32_USB_Host_Library/Core/Src/usbh_ctlreq.c ****   * @param  phost: Host Handle
 129:Middlewares/ST/STM32_USB_Host_Library/Core/Src/usbh_ctlreq.c ****   * @param  length: Length of the descriptor
 130:Middlewares/ST/STM32_USB_Host_Library/Core/Src/usbh_ctlreq.c ****   * @retval USBH Status
 131:Middlewares/ST/STM32_USB_Host_Library/Core/Src/usbh_ctlreq.c ****   */
 132:Middlewares/ST/STM32_USB_Host_Library/Core/Src/usbh_ctlreq.c **** USBH_StatusTypeDef USBH_Get_CfgDesc(USBH_HandleTypeDef *phost,
 133:Middlewares/ST/STM32_USB_Host_Library/Core/Src/usbh_ctlreq.c ****                                     uint16_t length)
 134:Middlewares/ST/STM32_USB_Host_Library/Core/Src/usbh_ctlreq.c **** 
 135:Middlewares/ST/STM32_USB_Host_Library/Core/Src/usbh_ctlreq.c **** {
 136:Middlewares/ST/STM32_USB_Host_Library/Core/Src/usbh_ctlreq.c ****   USBH_StatusTypeDef status;
 137:Middlewares/ST/STM32_USB_Host_Library/Core/Src/usbh_ctlreq.c ****   uint8_t *pData = phost->device.CfgDesc_Raw;
 138:Middlewares/ST/STM32_USB_Host_Library/Core/Src/usbh_ctlreq.c **** 
 139:Middlewares/ST/STM32_USB_Host_Library/Core/Src/usbh_ctlreq.c ****   status = USBH_GetDescriptor(phost, (USB_REQ_RECIPIENT_DEVICE | USB_REQ_TYPE_STANDARD),
 140:Middlewares/ST/STM32_USB_Host_Library/Core/Src/usbh_ctlreq.c ****                               USB_DESC_CONFIGURATION, pData, length);
 141:Middlewares/ST/STM32_USB_Host_Library/Core/Src/usbh_ctlreq.c **** 
 142:Middlewares/ST/STM32_USB_Host_Library/Core/Src/usbh_ctlreq.c ****   if (status == USBH_OK)
 143:Middlewares/ST/STM32_USB_Host_Library/Core/Src/usbh_ctlreq.c ****   {
 144:Middlewares/ST/STM32_USB_Host_Library/Core/Src/usbh_ctlreq.c ****     /* Commands successfully sent and Response Received  */
ARM GAS  /tmp/ccXjZKHH.s 			page 4


 145:Middlewares/ST/STM32_USB_Host_Library/Core/Src/usbh_ctlreq.c ****     status = USBH_ParseCfgDesc(phost, pData, length);
 146:Middlewares/ST/STM32_USB_Host_Library/Core/Src/usbh_ctlreq.c ****   }
 147:Middlewares/ST/STM32_USB_Host_Library/Core/Src/usbh_ctlreq.c **** 
 148:Middlewares/ST/STM32_USB_Host_Library/Core/Src/usbh_ctlreq.c ****   return status;
 149:Middlewares/ST/STM32_USB_Host_Library/Core/Src/usbh_ctlreq.c **** }
 150:Middlewares/ST/STM32_USB_Host_Library/Core/Src/usbh_ctlreq.c **** 
 151:Middlewares/ST/STM32_USB_Host_Library/Core/Src/usbh_ctlreq.c **** 
 152:Middlewares/ST/STM32_USB_Host_Library/Core/Src/usbh_ctlreq.c **** /**
 153:Middlewares/ST/STM32_USB_Host_Library/Core/Src/usbh_ctlreq.c ****   * @brief  USBH_Get_StringDesc
 154:Middlewares/ST/STM32_USB_Host_Library/Core/Src/usbh_ctlreq.c ****   *         Issues string Descriptor command to the device. Once the response
 155:Middlewares/ST/STM32_USB_Host_Library/Core/Src/usbh_ctlreq.c ****   *         received, it parses the string descriptor and updates the status.
 156:Middlewares/ST/STM32_USB_Host_Library/Core/Src/usbh_ctlreq.c ****   * @param  phost: Host Handle
 157:Middlewares/ST/STM32_USB_Host_Library/Core/Src/usbh_ctlreq.c ****   * @param  string_index: String index for the descriptor
 158:Middlewares/ST/STM32_USB_Host_Library/Core/Src/usbh_ctlreq.c ****   * @param  buff: Buffer address for the descriptor
 159:Middlewares/ST/STM32_USB_Host_Library/Core/Src/usbh_ctlreq.c ****   * @param  length: Length of the descriptor
 160:Middlewares/ST/STM32_USB_Host_Library/Core/Src/usbh_ctlreq.c ****   * @retval USBH Status
 161:Middlewares/ST/STM32_USB_Host_Library/Core/Src/usbh_ctlreq.c ****   */
 162:Middlewares/ST/STM32_USB_Host_Library/Core/Src/usbh_ctlreq.c **** USBH_StatusTypeDef USBH_Get_StringDesc(USBH_HandleTypeDef *phost,
 163:Middlewares/ST/STM32_USB_Host_Library/Core/Src/usbh_ctlreq.c ****                                        uint8_t string_index, uint8_t *buff,
 164:Middlewares/ST/STM32_USB_Host_Library/Core/Src/usbh_ctlreq.c ****                                        uint16_t length)
 165:Middlewares/ST/STM32_USB_Host_Library/Core/Src/usbh_ctlreq.c **** {
 166:Middlewares/ST/STM32_USB_Host_Library/Core/Src/usbh_ctlreq.c ****   USBH_StatusTypeDef status;
 167:Middlewares/ST/STM32_USB_Host_Library/Core/Src/usbh_ctlreq.c **** 
 168:Middlewares/ST/STM32_USB_Host_Library/Core/Src/usbh_ctlreq.c ****   status = USBH_GetDescriptor(phost,
 169:Middlewares/ST/STM32_USB_Host_Library/Core/Src/usbh_ctlreq.c ****                               USB_REQ_RECIPIENT_DEVICE | USB_REQ_TYPE_STANDARD,
 170:Middlewares/ST/STM32_USB_Host_Library/Core/Src/usbh_ctlreq.c ****                               USB_DESC_STRING | string_index,
 171:Middlewares/ST/STM32_USB_Host_Library/Core/Src/usbh_ctlreq.c ****                               phost->device.Data, length);
 172:Middlewares/ST/STM32_USB_Host_Library/Core/Src/usbh_ctlreq.c **** 
 173:Middlewares/ST/STM32_USB_Host_Library/Core/Src/usbh_ctlreq.c ****   if (status == USBH_OK)
 174:Middlewares/ST/STM32_USB_Host_Library/Core/Src/usbh_ctlreq.c ****   {
 175:Middlewares/ST/STM32_USB_Host_Library/Core/Src/usbh_ctlreq.c ****     /* Commands successfully sent and Response Received  */
 176:Middlewares/ST/STM32_USB_Host_Library/Core/Src/usbh_ctlreq.c ****     USBH_ParseStringDesc(phost->device.Data, buff, length);
 177:Middlewares/ST/STM32_USB_Host_Library/Core/Src/usbh_ctlreq.c ****   }
 178:Middlewares/ST/STM32_USB_Host_Library/Core/Src/usbh_ctlreq.c **** 
 179:Middlewares/ST/STM32_USB_Host_Library/Core/Src/usbh_ctlreq.c ****   return status;
 180:Middlewares/ST/STM32_USB_Host_Library/Core/Src/usbh_ctlreq.c **** }
 181:Middlewares/ST/STM32_USB_Host_Library/Core/Src/usbh_ctlreq.c **** 
 182:Middlewares/ST/STM32_USB_Host_Library/Core/Src/usbh_ctlreq.c **** 
 183:Middlewares/ST/STM32_USB_Host_Library/Core/Src/usbh_ctlreq.c **** /**
 184:Middlewares/ST/STM32_USB_Host_Library/Core/Src/usbh_ctlreq.c ****   * @brief  USBH_GetDescriptor
 185:Middlewares/ST/STM32_USB_Host_Library/Core/Src/usbh_ctlreq.c ****   *         Issues Descriptor command to the device. Once the response received,
 186:Middlewares/ST/STM32_USB_Host_Library/Core/Src/usbh_ctlreq.c ****   *         it parses the descriptor and updates the status.
 187:Middlewares/ST/STM32_USB_Host_Library/Core/Src/usbh_ctlreq.c ****   * @param  phost: Host Handle
 188:Middlewares/ST/STM32_USB_Host_Library/Core/Src/usbh_ctlreq.c ****   * @param  req_type: Descriptor type
 189:Middlewares/ST/STM32_USB_Host_Library/Core/Src/usbh_ctlreq.c ****   * @param  value_idx: Value for the GetDescriptr request
 190:Middlewares/ST/STM32_USB_Host_Library/Core/Src/usbh_ctlreq.c ****   * @param  buff: Buffer to store the descriptor
 191:Middlewares/ST/STM32_USB_Host_Library/Core/Src/usbh_ctlreq.c ****   * @param  length: Length of the descriptor
 192:Middlewares/ST/STM32_USB_Host_Library/Core/Src/usbh_ctlreq.c ****   * @retval USBH Status
 193:Middlewares/ST/STM32_USB_Host_Library/Core/Src/usbh_ctlreq.c ****   */
 194:Middlewares/ST/STM32_USB_Host_Library/Core/Src/usbh_ctlreq.c **** USBH_StatusTypeDef USBH_GetDescriptor(USBH_HandleTypeDef *phost,
 195:Middlewares/ST/STM32_USB_Host_Library/Core/Src/usbh_ctlreq.c ****                                       uint8_t  req_type,
 196:Middlewares/ST/STM32_USB_Host_Library/Core/Src/usbh_ctlreq.c ****                                       uint16_t value_idx,
 197:Middlewares/ST/STM32_USB_Host_Library/Core/Src/usbh_ctlreq.c ****                                       uint8_t *buff,
 198:Middlewares/ST/STM32_USB_Host_Library/Core/Src/usbh_ctlreq.c ****                                       uint16_t length)
 199:Middlewares/ST/STM32_USB_Host_Library/Core/Src/usbh_ctlreq.c **** {
 200:Middlewares/ST/STM32_USB_Host_Library/Core/Src/usbh_ctlreq.c ****   if (phost->RequestState == CMD_SEND)
 201:Middlewares/ST/STM32_USB_Host_Library/Core/Src/usbh_ctlreq.c ****   {
ARM GAS  /tmp/ccXjZKHH.s 			page 5


 202:Middlewares/ST/STM32_USB_Host_Library/Core/Src/usbh_ctlreq.c ****     phost->Control.setup.b.bmRequestType = USB_D2H | req_type;
 203:Middlewares/ST/STM32_USB_Host_Library/Core/Src/usbh_ctlreq.c ****     phost->Control.setup.b.bRequest = USB_REQ_GET_DESCRIPTOR;
 204:Middlewares/ST/STM32_USB_Host_Library/Core/Src/usbh_ctlreq.c ****     phost->Control.setup.b.wValue.w = value_idx;
 205:Middlewares/ST/STM32_USB_Host_Library/Core/Src/usbh_ctlreq.c **** 
 206:Middlewares/ST/STM32_USB_Host_Library/Core/Src/usbh_ctlreq.c ****     if ((value_idx & 0xff00U) == USB_DESC_STRING)
 207:Middlewares/ST/STM32_USB_Host_Library/Core/Src/usbh_ctlreq.c ****     {
 208:Middlewares/ST/STM32_USB_Host_Library/Core/Src/usbh_ctlreq.c ****       phost->Control.setup.b.wIndex.w = 0x0409U;
 209:Middlewares/ST/STM32_USB_Host_Library/Core/Src/usbh_ctlreq.c ****     }
 210:Middlewares/ST/STM32_USB_Host_Library/Core/Src/usbh_ctlreq.c ****     else
 211:Middlewares/ST/STM32_USB_Host_Library/Core/Src/usbh_ctlreq.c ****     {
 212:Middlewares/ST/STM32_USB_Host_Library/Core/Src/usbh_ctlreq.c ****       phost->Control.setup.b.wIndex.w = 0U;
 213:Middlewares/ST/STM32_USB_Host_Library/Core/Src/usbh_ctlreq.c ****     }
 214:Middlewares/ST/STM32_USB_Host_Library/Core/Src/usbh_ctlreq.c ****     phost->Control.setup.b.wLength.w = length;
 215:Middlewares/ST/STM32_USB_Host_Library/Core/Src/usbh_ctlreq.c ****   }
 216:Middlewares/ST/STM32_USB_Host_Library/Core/Src/usbh_ctlreq.c **** 
 217:Middlewares/ST/STM32_USB_Host_Library/Core/Src/usbh_ctlreq.c ****   return USBH_CtlReq(phost, buff, length);
 218:Middlewares/ST/STM32_USB_Host_Library/Core/Src/usbh_ctlreq.c **** }
 219:Middlewares/ST/STM32_USB_Host_Library/Core/Src/usbh_ctlreq.c **** 
 220:Middlewares/ST/STM32_USB_Host_Library/Core/Src/usbh_ctlreq.c **** 
 221:Middlewares/ST/STM32_USB_Host_Library/Core/Src/usbh_ctlreq.c **** /**
 222:Middlewares/ST/STM32_USB_Host_Library/Core/Src/usbh_ctlreq.c ****   * @brief  USBH_SetAddress
 223:Middlewares/ST/STM32_USB_Host_Library/Core/Src/usbh_ctlreq.c ****   *         This command sets the address to the connected device
 224:Middlewares/ST/STM32_USB_Host_Library/Core/Src/usbh_ctlreq.c ****   * @param  phost: Host Handle
 225:Middlewares/ST/STM32_USB_Host_Library/Core/Src/usbh_ctlreq.c ****   * @param  DeviceAddress: Device address to assign
 226:Middlewares/ST/STM32_USB_Host_Library/Core/Src/usbh_ctlreq.c ****   * @retval USBH Status
 227:Middlewares/ST/STM32_USB_Host_Library/Core/Src/usbh_ctlreq.c ****   */
 228:Middlewares/ST/STM32_USB_Host_Library/Core/Src/usbh_ctlreq.c **** USBH_StatusTypeDef USBH_SetAddress(USBH_HandleTypeDef *phost,
 229:Middlewares/ST/STM32_USB_Host_Library/Core/Src/usbh_ctlreq.c ****                                    uint8_t DeviceAddress)
 230:Middlewares/ST/STM32_USB_Host_Library/Core/Src/usbh_ctlreq.c **** {
 231:Middlewares/ST/STM32_USB_Host_Library/Core/Src/usbh_ctlreq.c ****   if (phost->RequestState == CMD_SEND)
 232:Middlewares/ST/STM32_USB_Host_Library/Core/Src/usbh_ctlreq.c ****   {
 233:Middlewares/ST/STM32_USB_Host_Library/Core/Src/usbh_ctlreq.c ****     phost->Control.setup.b.bmRequestType = USB_H2D | USB_REQ_RECIPIENT_DEVICE | \
 234:Middlewares/ST/STM32_USB_Host_Library/Core/Src/usbh_ctlreq.c ****                                            USB_REQ_TYPE_STANDARD;
 235:Middlewares/ST/STM32_USB_Host_Library/Core/Src/usbh_ctlreq.c **** 
 236:Middlewares/ST/STM32_USB_Host_Library/Core/Src/usbh_ctlreq.c ****     phost->Control.setup.b.bRequest = USB_REQ_SET_ADDRESS;
 237:Middlewares/ST/STM32_USB_Host_Library/Core/Src/usbh_ctlreq.c **** 
 238:Middlewares/ST/STM32_USB_Host_Library/Core/Src/usbh_ctlreq.c ****     phost->Control.setup.b.wValue.w = (uint16_t)DeviceAddress;
 239:Middlewares/ST/STM32_USB_Host_Library/Core/Src/usbh_ctlreq.c ****     phost->Control.setup.b.wIndex.w = 0U;
 240:Middlewares/ST/STM32_USB_Host_Library/Core/Src/usbh_ctlreq.c ****     phost->Control.setup.b.wLength.w = 0U;
 241:Middlewares/ST/STM32_USB_Host_Library/Core/Src/usbh_ctlreq.c ****   }
 242:Middlewares/ST/STM32_USB_Host_Library/Core/Src/usbh_ctlreq.c **** 
 243:Middlewares/ST/STM32_USB_Host_Library/Core/Src/usbh_ctlreq.c ****   return USBH_CtlReq(phost, NULL, 0U);
 244:Middlewares/ST/STM32_USB_Host_Library/Core/Src/usbh_ctlreq.c **** }
 245:Middlewares/ST/STM32_USB_Host_Library/Core/Src/usbh_ctlreq.c **** 
 246:Middlewares/ST/STM32_USB_Host_Library/Core/Src/usbh_ctlreq.c **** 
 247:Middlewares/ST/STM32_USB_Host_Library/Core/Src/usbh_ctlreq.c **** /**
 248:Middlewares/ST/STM32_USB_Host_Library/Core/Src/usbh_ctlreq.c ****   * @brief  USBH_SetCfg
 249:Middlewares/ST/STM32_USB_Host_Library/Core/Src/usbh_ctlreq.c ****   *         The command sets the configuration value to the connected device
 250:Middlewares/ST/STM32_USB_Host_Library/Core/Src/usbh_ctlreq.c ****   * @param  phost: Host Handle
 251:Middlewares/ST/STM32_USB_Host_Library/Core/Src/usbh_ctlreq.c ****   * @param  cfg_idx: Configuration value
 252:Middlewares/ST/STM32_USB_Host_Library/Core/Src/usbh_ctlreq.c ****   * @retval USBH Status
 253:Middlewares/ST/STM32_USB_Host_Library/Core/Src/usbh_ctlreq.c ****   */
 254:Middlewares/ST/STM32_USB_Host_Library/Core/Src/usbh_ctlreq.c **** USBH_StatusTypeDef USBH_SetCfg(USBH_HandleTypeDef *phost, uint16_t cfg_idx)
 255:Middlewares/ST/STM32_USB_Host_Library/Core/Src/usbh_ctlreq.c **** {
 256:Middlewares/ST/STM32_USB_Host_Library/Core/Src/usbh_ctlreq.c ****   if (phost->RequestState == CMD_SEND)
 257:Middlewares/ST/STM32_USB_Host_Library/Core/Src/usbh_ctlreq.c ****   {
 258:Middlewares/ST/STM32_USB_Host_Library/Core/Src/usbh_ctlreq.c ****     phost->Control.setup.b.bmRequestType = USB_H2D | USB_REQ_RECIPIENT_DEVICE
ARM GAS  /tmp/ccXjZKHH.s 			page 6


 259:Middlewares/ST/STM32_USB_Host_Library/Core/Src/usbh_ctlreq.c ****                                            | USB_REQ_TYPE_STANDARD;
 260:Middlewares/ST/STM32_USB_Host_Library/Core/Src/usbh_ctlreq.c **** 
 261:Middlewares/ST/STM32_USB_Host_Library/Core/Src/usbh_ctlreq.c ****     phost->Control.setup.b.bRequest = USB_REQ_SET_CONFIGURATION;
 262:Middlewares/ST/STM32_USB_Host_Library/Core/Src/usbh_ctlreq.c ****     phost->Control.setup.b.wValue.w = cfg_idx;
 263:Middlewares/ST/STM32_USB_Host_Library/Core/Src/usbh_ctlreq.c ****     phost->Control.setup.b.wIndex.w = 0U;
 264:Middlewares/ST/STM32_USB_Host_Library/Core/Src/usbh_ctlreq.c ****     phost->Control.setup.b.wLength.w = 0U;
 265:Middlewares/ST/STM32_USB_Host_Library/Core/Src/usbh_ctlreq.c ****   }
 266:Middlewares/ST/STM32_USB_Host_Library/Core/Src/usbh_ctlreq.c **** 
 267:Middlewares/ST/STM32_USB_Host_Library/Core/Src/usbh_ctlreq.c ****   return USBH_CtlReq(phost, NULL, 0U);
 268:Middlewares/ST/STM32_USB_Host_Library/Core/Src/usbh_ctlreq.c **** }
 269:Middlewares/ST/STM32_USB_Host_Library/Core/Src/usbh_ctlreq.c **** 
 270:Middlewares/ST/STM32_USB_Host_Library/Core/Src/usbh_ctlreq.c **** 
 271:Middlewares/ST/STM32_USB_Host_Library/Core/Src/usbh_ctlreq.c **** /**
 272:Middlewares/ST/STM32_USB_Host_Library/Core/Src/usbh_ctlreq.c ****   * @brief  USBH_SetInterface
 273:Middlewares/ST/STM32_USB_Host_Library/Core/Src/usbh_ctlreq.c ****   *         The command sets the Interface value to the connected device
 274:Middlewares/ST/STM32_USB_Host_Library/Core/Src/usbh_ctlreq.c ****   * @param  phost: Host Handle
 275:Middlewares/ST/STM32_USB_Host_Library/Core/Src/usbh_ctlreq.c ****   * @param  altSetting: Interface value
 276:Middlewares/ST/STM32_USB_Host_Library/Core/Src/usbh_ctlreq.c ****   * @retval USBH Status
 277:Middlewares/ST/STM32_USB_Host_Library/Core/Src/usbh_ctlreq.c ****   */
 278:Middlewares/ST/STM32_USB_Host_Library/Core/Src/usbh_ctlreq.c **** USBH_StatusTypeDef USBH_SetInterface(USBH_HandleTypeDef *phost, uint8_t ep_num,
 279:Middlewares/ST/STM32_USB_Host_Library/Core/Src/usbh_ctlreq.c ****                                      uint8_t altSetting)
 280:Middlewares/ST/STM32_USB_Host_Library/Core/Src/usbh_ctlreq.c **** {
 281:Middlewares/ST/STM32_USB_Host_Library/Core/Src/usbh_ctlreq.c ****   if (phost->RequestState == CMD_SEND)
 282:Middlewares/ST/STM32_USB_Host_Library/Core/Src/usbh_ctlreq.c ****   {
 283:Middlewares/ST/STM32_USB_Host_Library/Core/Src/usbh_ctlreq.c ****     phost->Control.setup.b.bmRequestType = USB_H2D | USB_REQ_RECIPIENT_INTERFACE
 284:Middlewares/ST/STM32_USB_Host_Library/Core/Src/usbh_ctlreq.c ****                                            | USB_REQ_TYPE_STANDARD;
 285:Middlewares/ST/STM32_USB_Host_Library/Core/Src/usbh_ctlreq.c **** 
 286:Middlewares/ST/STM32_USB_Host_Library/Core/Src/usbh_ctlreq.c ****     phost->Control.setup.b.bRequest = USB_REQ_SET_INTERFACE;
 287:Middlewares/ST/STM32_USB_Host_Library/Core/Src/usbh_ctlreq.c ****     phost->Control.setup.b.wValue.w = altSetting;
 288:Middlewares/ST/STM32_USB_Host_Library/Core/Src/usbh_ctlreq.c ****     phost->Control.setup.b.wIndex.w = ep_num;
 289:Middlewares/ST/STM32_USB_Host_Library/Core/Src/usbh_ctlreq.c ****     phost->Control.setup.b.wLength.w = 0U;
 290:Middlewares/ST/STM32_USB_Host_Library/Core/Src/usbh_ctlreq.c ****   }
 291:Middlewares/ST/STM32_USB_Host_Library/Core/Src/usbh_ctlreq.c **** 
 292:Middlewares/ST/STM32_USB_Host_Library/Core/Src/usbh_ctlreq.c ****   return USBH_CtlReq(phost, NULL, 0U);
 293:Middlewares/ST/STM32_USB_Host_Library/Core/Src/usbh_ctlreq.c **** }
 294:Middlewares/ST/STM32_USB_Host_Library/Core/Src/usbh_ctlreq.c **** 
 295:Middlewares/ST/STM32_USB_Host_Library/Core/Src/usbh_ctlreq.c **** 
 296:Middlewares/ST/STM32_USB_Host_Library/Core/Src/usbh_ctlreq.c **** /**
 297:Middlewares/ST/STM32_USB_Host_Library/Core/Src/usbh_ctlreq.c ****   * @brief  USBH_SetFeature
 298:Middlewares/ST/STM32_USB_Host_Library/Core/Src/usbh_ctlreq.c ****   *         The command sets the device features (remote wakeup feature,..)
 299:Middlewares/ST/STM32_USB_Host_Library/Core/Src/usbh_ctlreq.c ****   * @param  pdev: Selected device
 300:Middlewares/ST/STM32_USB_Host_Library/Core/Src/usbh_ctlreq.c ****   * @param  itf_idx
 301:Middlewares/ST/STM32_USB_Host_Library/Core/Src/usbh_ctlreq.c ****   * @retval Status
 302:Middlewares/ST/STM32_USB_Host_Library/Core/Src/usbh_ctlreq.c ****   */
 303:Middlewares/ST/STM32_USB_Host_Library/Core/Src/usbh_ctlreq.c **** USBH_StatusTypeDef USBH_SetFeature(USBH_HandleTypeDef *phost, uint8_t wValue)
 304:Middlewares/ST/STM32_USB_Host_Library/Core/Src/usbh_ctlreq.c **** {
 305:Middlewares/ST/STM32_USB_Host_Library/Core/Src/usbh_ctlreq.c ****   if (phost->RequestState == CMD_SEND)
 306:Middlewares/ST/STM32_USB_Host_Library/Core/Src/usbh_ctlreq.c ****   {
 307:Middlewares/ST/STM32_USB_Host_Library/Core/Src/usbh_ctlreq.c ****     phost->Control.setup.b.bmRequestType = USB_H2D | USB_REQ_RECIPIENT_DEVICE
 308:Middlewares/ST/STM32_USB_Host_Library/Core/Src/usbh_ctlreq.c ****                                            | USB_REQ_TYPE_STANDARD;
 309:Middlewares/ST/STM32_USB_Host_Library/Core/Src/usbh_ctlreq.c **** 
 310:Middlewares/ST/STM32_USB_Host_Library/Core/Src/usbh_ctlreq.c ****     phost->Control.setup.b.bRequest = USB_REQ_SET_FEATURE;
 311:Middlewares/ST/STM32_USB_Host_Library/Core/Src/usbh_ctlreq.c ****     phost->Control.setup.b.wValue.w = wValue;
 312:Middlewares/ST/STM32_USB_Host_Library/Core/Src/usbh_ctlreq.c ****     phost->Control.setup.b.wIndex.w = 0U;
 313:Middlewares/ST/STM32_USB_Host_Library/Core/Src/usbh_ctlreq.c ****     phost->Control.setup.b.wLength.w = 0U;
 314:Middlewares/ST/STM32_USB_Host_Library/Core/Src/usbh_ctlreq.c ****   }
 315:Middlewares/ST/STM32_USB_Host_Library/Core/Src/usbh_ctlreq.c **** 
ARM GAS  /tmp/ccXjZKHH.s 			page 7


 316:Middlewares/ST/STM32_USB_Host_Library/Core/Src/usbh_ctlreq.c ****   return USBH_CtlReq(phost, NULL, 0U);
 317:Middlewares/ST/STM32_USB_Host_Library/Core/Src/usbh_ctlreq.c **** }
 318:Middlewares/ST/STM32_USB_Host_Library/Core/Src/usbh_ctlreq.c **** 
 319:Middlewares/ST/STM32_USB_Host_Library/Core/Src/usbh_ctlreq.c **** 
 320:Middlewares/ST/STM32_USB_Host_Library/Core/Src/usbh_ctlreq.c **** /**
 321:Middlewares/ST/STM32_USB_Host_Library/Core/Src/usbh_ctlreq.c ****   * @brief  USBH_ClrFeature
 322:Middlewares/ST/STM32_USB_Host_Library/Core/Src/usbh_ctlreq.c ****   *         This request is used to clear or disable a specific feature.
 323:Middlewares/ST/STM32_USB_Host_Library/Core/Src/usbh_ctlreq.c ****   * @param  phost: Host Handle
 324:Middlewares/ST/STM32_USB_Host_Library/Core/Src/usbh_ctlreq.c ****   * @param  ep_num: endpoint number
 325:Middlewares/ST/STM32_USB_Host_Library/Core/Src/usbh_ctlreq.c ****   * @param  hc_num: Host channel number
 326:Middlewares/ST/STM32_USB_Host_Library/Core/Src/usbh_ctlreq.c ****   * @retval USBH Status
 327:Middlewares/ST/STM32_USB_Host_Library/Core/Src/usbh_ctlreq.c ****   */
 328:Middlewares/ST/STM32_USB_Host_Library/Core/Src/usbh_ctlreq.c **** USBH_StatusTypeDef USBH_ClrFeature(USBH_HandleTypeDef *phost, uint8_t ep_num)
 329:Middlewares/ST/STM32_USB_Host_Library/Core/Src/usbh_ctlreq.c **** {
 330:Middlewares/ST/STM32_USB_Host_Library/Core/Src/usbh_ctlreq.c ****   if (phost->RequestState == CMD_SEND)
 331:Middlewares/ST/STM32_USB_Host_Library/Core/Src/usbh_ctlreq.c ****   {
 332:Middlewares/ST/STM32_USB_Host_Library/Core/Src/usbh_ctlreq.c ****     phost->Control.setup.b.bmRequestType = USB_H2D | USB_REQ_RECIPIENT_ENDPOINT
 333:Middlewares/ST/STM32_USB_Host_Library/Core/Src/usbh_ctlreq.c ****                                            | USB_REQ_TYPE_STANDARD;
 334:Middlewares/ST/STM32_USB_Host_Library/Core/Src/usbh_ctlreq.c **** 
 335:Middlewares/ST/STM32_USB_Host_Library/Core/Src/usbh_ctlreq.c ****     phost->Control.setup.b.bRequest = USB_REQ_CLEAR_FEATURE;
 336:Middlewares/ST/STM32_USB_Host_Library/Core/Src/usbh_ctlreq.c ****     phost->Control.setup.b.wValue.w = FEATURE_SELECTOR_ENDPOINT;
 337:Middlewares/ST/STM32_USB_Host_Library/Core/Src/usbh_ctlreq.c ****     phost->Control.setup.b.wIndex.w = ep_num;
 338:Middlewares/ST/STM32_USB_Host_Library/Core/Src/usbh_ctlreq.c ****     phost->Control.setup.b.wLength.w = 0U;
 339:Middlewares/ST/STM32_USB_Host_Library/Core/Src/usbh_ctlreq.c ****   }
 340:Middlewares/ST/STM32_USB_Host_Library/Core/Src/usbh_ctlreq.c ****   return USBH_CtlReq(phost, NULL, 0U);
 341:Middlewares/ST/STM32_USB_Host_Library/Core/Src/usbh_ctlreq.c **** }
 342:Middlewares/ST/STM32_USB_Host_Library/Core/Src/usbh_ctlreq.c **** 
 343:Middlewares/ST/STM32_USB_Host_Library/Core/Src/usbh_ctlreq.c **** 
 344:Middlewares/ST/STM32_USB_Host_Library/Core/Src/usbh_ctlreq.c **** /**
 345:Middlewares/ST/STM32_USB_Host_Library/Core/Src/usbh_ctlreq.c ****   * @brief  USBH_ParseDevDesc
 346:Middlewares/ST/STM32_USB_Host_Library/Core/Src/usbh_ctlreq.c ****   *         This function Parses the device descriptor
 347:Middlewares/ST/STM32_USB_Host_Library/Core/Src/usbh_ctlreq.c ****   * @param  dev_desc: device_descriptor destination address
 348:Middlewares/ST/STM32_USB_Host_Library/Core/Src/usbh_ctlreq.c ****   * @param  buf: Buffer where the source descriptor is available
 349:Middlewares/ST/STM32_USB_Host_Library/Core/Src/usbh_ctlreq.c ****   * @param  length: Length of the descriptor
 350:Middlewares/ST/STM32_USB_Host_Library/Core/Src/usbh_ctlreq.c ****   * @retval None
 351:Middlewares/ST/STM32_USB_Host_Library/Core/Src/usbh_ctlreq.c ****   */
 352:Middlewares/ST/STM32_USB_Host_Library/Core/Src/usbh_ctlreq.c **** static void  USBH_ParseDevDesc(USBH_DevDescTypeDef *dev_desc, uint8_t *buf,
 353:Middlewares/ST/STM32_USB_Host_Library/Core/Src/usbh_ctlreq.c ****                                uint16_t length)
 354:Middlewares/ST/STM32_USB_Host_Library/Core/Src/usbh_ctlreq.c **** {
  29              		.loc 1 354 1 view -0
  30              		.cfi_startproc
  31              		@ args = 0, pretend = 0, frame = 0
  32              		@ frame_needed = 0, uses_anonymous_args = 0
  33              		@ link register save eliminated.
  34              		.loc 1 354 1 is_stmt 0 view .LVU1
  35 0000 10B4     		push	{r4}
  36              	.LCFI0:
  37              		.cfi_def_cfa_offset 4
  38              		.cfi_offset 4, -4
 355:Middlewares/ST/STM32_USB_Host_Library/Core/Src/usbh_ctlreq.c ****   dev_desc->bLength            = *(uint8_t *)(buf +  0);
  39              		.loc 1 355 3 is_stmt 1 view .LVU2
  40              		.loc 1 355 34 is_stmt 0 view .LVU3
  41 0002 0B78     		ldrb	r3, [r1]	@ zero_extendqisi2
  42              		.loc 1 355 32 view .LVU4
  43 0004 0370     		strb	r3, [r0]
 356:Middlewares/ST/STM32_USB_Host_Library/Core/Src/usbh_ctlreq.c ****   dev_desc->bDescriptorType    = *(uint8_t *)(buf +  1);
  44              		.loc 1 356 3 is_stmt 1 view .LVU5
ARM GAS  /tmp/ccXjZKHH.s 			page 8


  45              		.loc 1 356 32 is_stmt 0 view .LVU6
  46 0006 4B78     		ldrb	r3, [r1, #1]	@ zero_extendqisi2
  47 0008 4370     		strb	r3, [r0, #1]
 357:Middlewares/ST/STM32_USB_Host_Library/Core/Src/usbh_ctlreq.c ****   dev_desc->bcdUSB             = LE16(buf +  2);
  48              		.loc 1 357 3 is_stmt 1 view .LVU7
  49              		.loc 1 357 34 is_stmt 0 view .LVU8
  50 000a 8B78     		ldrb	r3, [r1, #2]	@ zero_extendqisi2
  51 000c CC78     		ldrb	r4, [r1, #3]	@ zero_extendqisi2
  52 000e 43EA0423 		orr	r3, r3, r4, lsl #8
  53              		.loc 1 357 32 view .LVU9
  54 0012 4380     		strh	r3, [r0, #2]	@ movhi
 358:Middlewares/ST/STM32_USB_Host_Library/Core/Src/usbh_ctlreq.c ****   dev_desc->bDeviceClass       = *(uint8_t *)(buf +  4);
  55              		.loc 1 358 3 is_stmt 1 view .LVU10
  56              		.loc 1 358 32 is_stmt 0 view .LVU11
  57 0014 0B79     		ldrb	r3, [r1, #4]	@ zero_extendqisi2
  58 0016 0371     		strb	r3, [r0, #4]
 359:Middlewares/ST/STM32_USB_Host_Library/Core/Src/usbh_ctlreq.c ****   dev_desc->bDeviceSubClass    = *(uint8_t *)(buf +  5);
  59              		.loc 1 359 3 is_stmt 1 view .LVU12
  60              		.loc 1 359 32 is_stmt 0 view .LVU13
  61 0018 4B79     		ldrb	r3, [r1, #5]	@ zero_extendqisi2
  62 001a 4371     		strb	r3, [r0, #5]
 360:Middlewares/ST/STM32_USB_Host_Library/Core/Src/usbh_ctlreq.c ****   dev_desc->bDeviceProtocol    = *(uint8_t *)(buf +  6);
  63              		.loc 1 360 3 is_stmt 1 view .LVU14
  64              		.loc 1 360 32 is_stmt 0 view .LVU15
  65 001c 8B79     		ldrb	r3, [r1, #6]	@ zero_extendqisi2
  66 001e 8371     		strb	r3, [r0, #6]
 361:Middlewares/ST/STM32_USB_Host_Library/Core/Src/usbh_ctlreq.c ****   dev_desc->bMaxPacketSize     = *(uint8_t *)(buf +  7);
  67              		.loc 1 361 3 is_stmt 1 view .LVU16
  68              		.loc 1 361 32 is_stmt 0 view .LVU17
  69 0020 CB79     		ldrb	r3, [r1, #7]	@ zero_extendqisi2
  70 0022 C371     		strb	r3, [r0, #7]
 362:Middlewares/ST/STM32_USB_Host_Library/Core/Src/usbh_ctlreq.c **** 
 363:Middlewares/ST/STM32_USB_Host_Library/Core/Src/usbh_ctlreq.c ****   /* Make sure that the max packet size is either 8, 16, 32, 64 or force it to 64 */
 364:Middlewares/ST/STM32_USB_Host_Library/Core/Src/usbh_ctlreq.c ****   switch (dev_desc->bMaxPacketSize)
  71              		.loc 1 364 3 is_stmt 1 view .LVU18
  72 0024 202B     		cmp	r3, #32
  73 0026 0CD8     		bhi	.L2
  74 0028 082B     		cmp	r3, #8
  75 002a 0CD3     		bcc	.L3
  76 002c 083B     		subs	r3, r3, #8
  77 002e DBB2     		uxtb	r3, r3
  78 0030 0124     		movs	r4, #1
  79 0032 04FA03F3 		lsl	r3, r4, r3
  80 0036 03F00133 		and	r3, r3, #16843009
  81 003a 23F48033 		bic	r3, r3, #65536
  82 003e 13B1     		cbz	r3, .L3
  83 0040 03E0     		b	.L4
  84              	.L2:
  85 0042 402B     		cmp	r3, #64
  86 0044 01D0     		beq	.L4
  87              	.L3:
 365:Middlewares/ST/STM32_USB_Host_Library/Core/Src/usbh_ctlreq.c ****   {
 366:Middlewares/ST/STM32_USB_Host_Library/Core/Src/usbh_ctlreq.c ****     case 8:
 367:Middlewares/ST/STM32_USB_Host_Library/Core/Src/usbh_ctlreq.c ****     case 16:
 368:Middlewares/ST/STM32_USB_Host_Library/Core/Src/usbh_ctlreq.c ****     case 32:
 369:Middlewares/ST/STM32_USB_Host_Library/Core/Src/usbh_ctlreq.c ****     case 64:
 370:Middlewares/ST/STM32_USB_Host_Library/Core/Src/usbh_ctlreq.c ****       dev_desc->bMaxPacketSize = dev_desc->bMaxPacketSize;
ARM GAS  /tmp/ccXjZKHH.s 			page 9


 371:Middlewares/ST/STM32_USB_Host_Library/Core/Src/usbh_ctlreq.c ****       break;
 372:Middlewares/ST/STM32_USB_Host_Library/Core/Src/usbh_ctlreq.c **** 
 373:Middlewares/ST/STM32_USB_Host_Library/Core/Src/usbh_ctlreq.c ****     default:
 374:Middlewares/ST/STM32_USB_Host_Library/Core/Src/usbh_ctlreq.c ****       /*set the size to 64 in case the device has answered with incorrect size */
 375:Middlewares/ST/STM32_USB_Host_Library/Core/Src/usbh_ctlreq.c ****       dev_desc->bMaxPacketSize = 64U;
  88              		.loc 1 375 7 view .LVU19
  89              		.loc 1 375 32 is_stmt 0 view .LVU20
  90 0046 4023     		movs	r3, #64
  91 0048 C371     		strb	r3, [r0, #7]
 376:Middlewares/ST/STM32_USB_Host_Library/Core/Src/usbh_ctlreq.c ****       break;
  92              		.loc 1 376 7 is_stmt 1 view .LVU21
  93              	.L4:
 377:Middlewares/ST/STM32_USB_Host_Library/Core/Src/usbh_ctlreq.c ****   }
 378:Middlewares/ST/STM32_USB_Host_Library/Core/Src/usbh_ctlreq.c **** 
 379:Middlewares/ST/STM32_USB_Host_Library/Core/Src/usbh_ctlreq.c ****   if (length > 8U)
  94              		.loc 1 379 3 view .LVU22
  95              		.loc 1 379 6 is_stmt 0 view .LVU23
  96 004a 082A     		cmp	r2, #8
  97 004c 16D9     		bls	.L1
 380:Middlewares/ST/STM32_USB_Host_Library/Core/Src/usbh_ctlreq.c ****   {
 381:Middlewares/ST/STM32_USB_Host_Library/Core/Src/usbh_ctlreq.c ****     /* For 1st time after device connection, Host may issue only 8 bytes for
 382:Middlewares/ST/STM32_USB_Host_Library/Core/Src/usbh_ctlreq.c ****     Device Descriptor Length  */
 383:Middlewares/ST/STM32_USB_Host_Library/Core/Src/usbh_ctlreq.c ****     dev_desc->idVendor           = LE16(buf +  8);
  98              		.loc 1 383 5 is_stmt 1 view .LVU24
  99              		.loc 1 383 36 is_stmt 0 view .LVU25
 100 004e 0B7A     		ldrb	r3, [r1, #8]	@ zero_extendqisi2
 101 0050 4A7A     		ldrb	r2, [r1, #9]	@ zero_extendqisi2
 102              	.LVL1:
 103              		.loc 1 383 36 view .LVU26
 104 0052 43EA0223 		orr	r3, r3, r2, lsl #8
 105              		.loc 1 383 34 view .LVU27
 106 0056 0381     		strh	r3, [r0, #8]	@ movhi
 384:Middlewares/ST/STM32_USB_Host_Library/Core/Src/usbh_ctlreq.c ****     dev_desc->idProduct          = LE16(buf + 10);
 107              		.loc 1 384 5 is_stmt 1 view .LVU28
 108              		.loc 1 384 36 is_stmt 0 view .LVU29
 109 0058 8B7A     		ldrb	r3, [r1, #10]	@ zero_extendqisi2
 110 005a CA7A     		ldrb	r2, [r1, #11]	@ zero_extendqisi2
 111 005c 43EA0223 		orr	r3, r3, r2, lsl #8
 112              		.loc 1 384 34 view .LVU30
 113 0060 4381     		strh	r3, [r0, #10]	@ movhi
 385:Middlewares/ST/STM32_USB_Host_Library/Core/Src/usbh_ctlreq.c ****     dev_desc->bcdDevice          = LE16(buf + 12);
 114              		.loc 1 385 5 is_stmt 1 view .LVU31
 115              		.loc 1 385 36 is_stmt 0 view .LVU32
 116 0062 0B7B     		ldrb	r3, [r1, #12]	@ zero_extendqisi2
 117 0064 4A7B     		ldrb	r2, [r1, #13]	@ zero_extendqisi2
 118 0066 43EA0223 		orr	r3, r3, r2, lsl #8
 119              		.loc 1 385 34 view .LVU33
 120 006a 8381     		strh	r3, [r0, #12]	@ movhi
 386:Middlewares/ST/STM32_USB_Host_Library/Core/Src/usbh_ctlreq.c ****     dev_desc->iManufacturer      = *(uint8_t *)(buf + 14);
 121              		.loc 1 386 5 is_stmt 1 view .LVU34
 122              		.loc 1 386 34 is_stmt 0 view .LVU35
 123 006c 8B7B     		ldrb	r3, [r1, #14]	@ zero_extendqisi2
 124 006e 8373     		strb	r3, [r0, #14]
 387:Middlewares/ST/STM32_USB_Host_Library/Core/Src/usbh_ctlreq.c ****     dev_desc->iProduct           = *(uint8_t *)(buf + 15);
 125              		.loc 1 387 5 is_stmt 1 view .LVU36
 126              		.loc 1 387 34 is_stmt 0 view .LVU37
 127 0070 CB7B     		ldrb	r3, [r1, #15]	@ zero_extendqisi2
ARM GAS  /tmp/ccXjZKHH.s 			page 10


 128 0072 C373     		strb	r3, [r0, #15]
 388:Middlewares/ST/STM32_USB_Host_Library/Core/Src/usbh_ctlreq.c ****     dev_desc->iSerialNumber      = *(uint8_t *)(buf + 16);
 129              		.loc 1 388 5 is_stmt 1 view .LVU38
 130              		.loc 1 388 34 is_stmt 0 view .LVU39
 131 0074 0B7C     		ldrb	r3, [r1, #16]	@ zero_extendqisi2
 132 0076 0374     		strb	r3, [r0, #16]
 389:Middlewares/ST/STM32_USB_Host_Library/Core/Src/usbh_ctlreq.c ****     dev_desc->bNumConfigurations = *(uint8_t *)(buf + 17);
 133              		.loc 1 389 5 is_stmt 1 view .LVU40
 134              		.loc 1 389 34 is_stmt 0 view .LVU41
 135 0078 4B7C     		ldrb	r3, [r1, #17]	@ zero_extendqisi2
 136 007a 4374     		strb	r3, [r0, #17]
 137              	.L1:
 390:Middlewares/ST/STM32_USB_Host_Library/Core/Src/usbh_ctlreq.c ****   }
 391:Middlewares/ST/STM32_USB_Host_Library/Core/Src/usbh_ctlreq.c **** }
 138              		.loc 1 391 1 view .LVU42
 139 007c 5DF8044B 		ldr	r4, [sp], #4
 140              	.LCFI1:
 141              		.cfi_restore 4
 142              		.cfi_def_cfa_offset 0
 143 0080 7047     		bx	lr
 144              		.cfi_endproc
 145              	.LFE142:
 147              		.section	.text.USBH_ParseInterfaceDesc,"ax",%progbits
 148              		.align	1
 149              		.syntax unified
 150              		.thumb
 151              		.thumb_func
 152              		.fpu fpv4-sp-d16
 154              	USBH_ParseInterfaceDesc:
 155              	.LVL2:
 156              	.LFB144:
 392:Middlewares/ST/STM32_USB_Host_Library/Core/Src/usbh_ctlreq.c **** 
 393:Middlewares/ST/STM32_USB_Host_Library/Core/Src/usbh_ctlreq.c **** 
 394:Middlewares/ST/STM32_USB_Host_Library/Core/Src/usbh_ctlreq.c **** /**
 395:Middlewares/ST/STM32_USB_Host_Library/Core/Src/usbh_ctlreq.c ****   * @brief  USBH_ParseCfgDesc
 396:Middlewares/ST/STM32_USB_Host_Library/Core/Src/usbh_ctlreq.c ****   *         This function Parses the configuration descriptor
 397:Middlewares/ST/STM32_USB_Host_Library/Core/Src/usbh_ctlreq.c ****   * @param  phost: USB Host handler
 398:Middlewares/ST/STM32_USB_Host_Library/Core/Src/usbh_ctlreq.c ****   * @param  buf: Buffer where the source descriptor is available
 399:Middlewares/ST/STM32_USB_Host_Library/Core/Src/usbh_ctlreq.c ****   * @param  length: Length of the descriptor
 400:Middlewares/ST/STM32_USB_Host_Library/Core/Src/usbh_ctlreq.c ****   * @retval USBH statuse
 401:Middlewares/ST/STM32_USB_Host_Library/Core/Src/usbh_ctlreq.c ****   */
 402:Middlewares/ST/STM32_USB_Host_Library/Core/Src/usbh_ctlreq.c **** static USBH_StatusTypeDef USBH_ParseCfgDesc(USBH_HandleTypeDef *phost, uint8_t *buf, uint16_t lengt
 403:Middlewares/ST/STM32_USB_Host_Library/Core/Src/usbh_ctlreq.c **** {
 404:Middlewares/ST/STM32_USB_Host_Library/Core/Src/usbh_ctlreq.c ****   USBH_CfgDescTypeDef *cfg_desc = &phost->device.CfgDesc;
 405:Middlewares/ST/STM32_USB_Host_Library/Core/Src/usbh_ctlreq.c ****   USBH_StatusTypeDef           status = USBH_OK;
 406:Middlewares/ST/STM32_USB_Host_Library/Core/Src/usbh_ctlreq.c ****   USBH_InterfaceDescTypeDef    *pif ;
 407:Middlewares/ST/STM32_USB_Host_Library/Core/Src/usbh_ctlreq.c ****   USBH_EpDescTypeDef           *pep;
 408:Middlewares/ST/STM32_USB_Host_Library/Core/Src/usbh_ctlreq.c ****   USBH_DescHeader_t            *pdesc = (USBH_DescHeader_t *)(void *)buf;
 409:Middlewares/ST/STM32_USB_Host_Library/Core/Src/usbh_ctlreq.c ****   uint16_t                     ptr;
 410:Middlewares/ST/STM32_USB_Host_Library/Core/Src/usbh_ctlreq.c ****   uint8_t                      if_ix = 0U;
 411:Middlewares/ST/STM32_USB_Host_Library/Core/Src/usbh_ctlreq.c ****   uint8_t                      ep_ix = 0U;
 412:Middlewares/ST/STM32_USB_Host_Library/Core/Src/usbh_ctlreq.c **** 
 413:Middlewares/ST/STM32_USB_Host_Library/Core/Src/usbh_ctlreq.c ****   pdesc   = (USBH_DescHeader_t *)(void *)buf;
 414:Middlewares/ST/STM32_USB_Host_Library/Core/Src/usbh_ctlreq.c **** 
 415:Middlewares/ST/STM32_USB_Host_Library/Core/Src/usbh_ctlreq.c ****   /* Parse configuration descriptor */
 416:Middlewares/ST/STM32_USB_Host_Library/Core/Src/usbh_ctlreq.c ****   cfg_desc->bLength             = *(uint8_t *)(buf + 0);
 417:Middlewares/ST/STM32_USB_Host_Library/Core/Src/usbh_ctlreq.c ****   cfg_desc->bDescriptorType     = *(uint8_t *)(buf + 1);
ARM GAS  /tmp/ccXjZKHH.s 			page 11


 418:Middlewares/ST/STM32_USB_Host_Library/Core/Src/usbh_ctlreq.c ****   cfg_desc->wTotalLength        = MIN(((uint16_t) LE16(buf + 2)), ((uint16_t)USBH_MAX_SIZE_CONFIGUR
 419:Middlewares/ST/STM32_USB_Host_Library/Core/Src/usbh_ctlreq.c ****   cfg_desc->bNumInterfaces      = *(uint8_t *)(buf + 4);
 420:Middlewares/ST/STM32_USB_Host_Library/Core/Src/usbh_ctlreq.c ****   cfg_desc->bConfigurationValue = *(uint8_t *)(buf + 5);
 421:Middlewares/ST/STM32_USB_Host_Library/Core/Src/usbh_ctlreq.c ****   cfg_desc->iConfiguration      = *(uint8_t *)(buf + 6);
 422:Middlewares/ST/STM32_USB_Host_Library/Core/Src/usbh_ctlreq.c ****   cfg_desc->bmAttributes        = *(uint8_t *)(buf + 7);
 423:Middlewares/ST/STM32_USB_Host_Library/Core/Src/usbh_ctlreq.c ****   cfg_desc->bMaxPower           = *(uint8_t *)(buf + 8);
 424:Middlewares/ST/STM32_USB_Host_Library/Core/Src/usbh_ctlreq.c **** 
 425:Middlewares/ST/STM32_USB_Host_Library/Core/Src/usbh_ctlreq.c ****   /* Make sure that the Confguration descriptor's bLength is equal to USB_CONFIGURATION_DESC_SIZE *
 426:Middlewares/ST/STM32_USB_Host_Library/Core/Src/usbh_ctlreq.c ****   if (cfg_desc->bLength  != USB_CONFIGURATION_DESC_SIZE)
 427:Middlewares/ST/STM32_USB_Host_Library/Core/Src/usbh_ctlreq.c ****   {
 428:Middlewares/ST/STM32_USB_Host_Library/Core/Src/usbh_ctlreq.c ****     cfg_desc->bLength = USB_CONFIGURATION_DESC_SIZE;
 429:Middlewares/ST/STM32_USB_Host_Library/Core/Src/usbh_ctlreq.c ****   }
 430:Middlewares/ST/STM32_USB_Host_Library/Core/Src/usbh_ctlreq.c **** 
 431:Middlewares/ST/STM32_USB_Host_Library/Core/Src/usbh_ctlreq.c ****   if (length > USB_CONFIGURATION_DESC_SIZE)
 432:Middlewares/ST/STM32_USB_Host_Library/Core/Src/usbh_ctlreq.c ****   {
 433:Middlewares/ST/STM32_USB_Host_Library/Core/Src/usbh_ctlreq.c ****     ptr = USB_LEN_CFG_DESC;
 434:Middlewares/ST/STM32_USB_Host_Library/Core/Src/usbh_ctlreq.c ****     pif = (USBH_InterfaceDescTypeDef *)NULL;
 435:Middlewares/ST/STM32_USB_Host_Library/Core/Src/usbh_ctlreq.c **** 
 436:Middlewares/ST/STM32_USB_Host_Library/Core/Src/usbh_ctlreq.c ****     while ((if_ix < USBH_MAX_NUM_INTERFACES) && (ptr < cfg_desc->wTotalLength))
 437:Middlewares/ST/STM32_USB_Host_Library/Core/Src/usbh_ctlreq.c ****     {
 438:Middlewares/ST/STM32_USB_Host_Library/Core/Src/usbh_ctlreq.c ****       pdesc = USBH_GetNextDesc((uint8_t *)(void *)pdesc, &ptr);
 439:Middlewares/ST/STM32_USB_Host_Library/Core/Src/usbh_ctlreq.c ****       if (pdesc->bDescriptorType == USB_DESC_TYPE_INTERFACE)
 440:Middlewares/ST/STM32_USB_Host_Library/Core/Src/usbh_ctlreq.c ****       {
 441:Middlewares/ST/STM32_USB_Host_Library/Core/Src/usbh_ctlreq.c ****         /* Make sure that the interface descriptor's bLength is equal to USB_INTERFACE_DESC_SIZE */
 442:Middlewares/ST/STM32_USB_Host_Library/Core/Src/usbh_ctlreq.c ****         if (pdesc->bLength != USB_INTERFACE_DESC_SIZE)
 443:Middlewares/ST/STM32_USB_Host_Library/Core/Src/usbh_ctlreq.c ****         {
 444:Middlewares/ST/STM32_USB_Host_Library/Core/Src/usbh_ctlreq.c ****           pdesc->bLength = USB_INTERFACE_DESC_SIZE;
 445:Middlewares/ST/STM32_USB_Host_Library/Core/Src/usbh_ctlreq.c ****         }
 446:Middlewares/ST/STM32_USB_Host_Library/Core/Src/usbh_ctlreq.c **** 
 447:Middlewares/ST/STM32_USB_Host_Library/Core/Src/usbh_ctlreq.c ****         pif = &cfg_desc->Itf_Desc[if_ix];
 448:Middlewares/ST/STM32_USB_Host_Library/Core/Src/usbh_ctlreq.c ****         USBH_ParseInterfaceDesc(pif, (uint8_t *)(void *)pdesc);
 449:Middlewares/ST/STM32_USB_Host_Library/Core/Src/usbh_ctlreq.c **** 
 450:Middlewares/ST/STM32_USB_Host_Library/Core/Src/usbh_ctlreq.c ****         ep_ix = 0U;
 451:Middlewares/ST/STM32_USB_Host_Library/Core/Src/usbh_ctlreq.c ****         pep = (USBH_EpDescTypeDef *)NULL;
 452:Middlewares/ST/STM32_USB_Host_Library/Core/Src/usbh_ctlreq.c **** 
 453:Middlewares/ST/STM32_USB_Host_Library/Core/Src/usbh_ctlreq.c ****         while ((ep_ix < pif->bNumEndpoints) && (ptr < cfg_desc->wTotalLength))
 454:Middlewares/ST/STM32_USB_Host_Library/Core/Src/usbh_ctlreq.c ****         {
 455:Middlewares/ST/STM32_USB_Host_Library/Core/Src/usbh_ctlreq.c ****           pdesc = USBH_GetNextDesc((uint8_t *)(void *)pdesc, &ptr);
 456:Middlewares/ST/STM32_USB_Host_Library/Core/Src/usbh_ctlreq.c **** 
 457:Middlewares/ST/STM32_USB_Host_Library/Core/Src/usbh_ctlreq.c ****           if (pdesc->bDescriptorType == USB_DESC_TYPE_ENDPOINT)
 458:Middlewares/ST/STM32_USB_Host_Library/Core/Src/usbh_ctlreq.c ****           {
 459:Middlewares/ST/STM32_USB_Host_Library/Core/Src/usbh_ctlreq.c ****             /* Check if the endpoint is appartening to an audio streaming interface */
 460:Middlewares/ST/STM32_USB_Host_Library/Core/Src/usbh_ctlreq.c ****             if ((pif->bInterfaceClass == 0x01U) && (pif->bInterfaceSubClass == 0x02U))
 461:Middlewares/ST/STM32_USB_Host_Library/Core/Src/usbh_ctlreq.c ****             {
 462:Middlewares/ST/STM32_USB_Host_Library/Core/Src/usbh_ctlreq.c ****               /* Check if it is supporting the USB AUDIO 01 class specification */
 463:Middlewares/ST/STM32_USB_Host_Library/Core/Src/usbh_ctlreq.c ****               if ((pif->bInterfaceProtocol == 0x00U) && (pdesc->bLength != 0x09U))
 464:Middlewares/ST/STM32_USB_Host_Library/Core/Src/usbh_ctlreq.c ****               {
 465:Middlewares/ST/STM32_USB_Host_Library/Core/Src/usbh_ctlreq.c ****                 pdesc->bLength = 0x09U;
 466:Middlewares/ST/STM32_USB_Host_Library/Core/Src/usbh_ctlreq.c ****               }
 467:Middlewares/ST/STM32_USB_Host_Library/Core/Src/usbh_ctlreq.c ****             }
 468:Middlewares/ST/STM32_USB_Host_Library/Core/Src/usbh_ctlreq.c ****             /* Make sure that the endpoint descriptor's bLength is equal to
 469:Middlewares/ST/STM32_USB_Host_Library/Core/Src/usbh_ctlreq.c ****                USB_ENDPOINT_DESC_SIZE for all other endpoints types */
 470:Middlewares/ST/STM32_USB_Host_Library/Core/Src/usbh_ctlreq.c ****             else if (pdesc->bLength != USB_ENDPOINT_DESC_SIZE)
 471:Middlewares/ST/STM32_USB_Host_Library/Core/Src/usbh_ctlreq.c ****             {
 472:Middlewares/ST/STM32_USB_Host_Library/Core/Src/usbh_ctlreq.c ****               pdesc->bLength = USB_ENDPOINT_DESC_SIZE;
 473:Middlewares/ST/STM32_USB_Host_Library/Core/Src/usbh_ctlreq.c ****             }
 474:Middlewares/ST/STM32_USB_Host_Library/Core/Src/usbh_ctlreq.c ****             else
ARM GAS  /tmp/ccXjZKHH.s 			page 12


 475:Middlewares/ST/STM32_USB_Host_Library/Core/Src/usbh_ctlreq.c ****             {
 476:Middlewares/ST/STM32_USB_Host_Library/Core/Src/usbh_ctlreq.c ****               /* ... */
 477:Middlewares/ST/STM32_USB_Host_Library/Core/Src/usbh_ctlreq.c ****             }
 478:Middlewares/ST/STM32_USB_Host_Library/Core/Src/usbh_ctlreq.c **** 
 479:Middlewares/ST/STM32_USB_Host_Library/Core/Src/usbh_ctlreq.c ****             pep = &cfg_desc->Itf_Desc[if_ix].Ep_Desc[ep_ix];
 480:Middlewares/ST/STM32_USB_Host_Library/Core/Src/usbh_ctlreq.c **** 
 481:Middlewares/ST/STM32_USB_Host_Library/Core/Src/usbh_ctlreq.c ****             status = USBH_ParseEPDesc(phost, pep, (uint8_t *)(void *)pdesc);
 482:Middlewares/ST/STM32_USB_Host_Library/Core/Src/usbh_ctlreq.c **** 
 483:Middlewares/ST/STM32_USB_Host_Library/Core/Src/usbh_ctlreq.c ****             ep_ix++;
 484:Middlewares/ST/STM32_USB_Host_Library/Core/Src/usbh_ctlreq.c ****           }
 485:Middlewares/ST/STM32_USB_Host_Library/Core/Src/usbh_ctlreq.c ****         }
 486:Middlewares/ST/STM32_USB_Host_Library/Core/Src/usbh_ctlreq.c **** 
 487:Middlewares/ST/STM32_USB_Host_Library/Core/Src/usbh_ctlreq.c ****         /* Check if the required endpoint(s) data are parsed */
 488:Middlewares/ST/STM32_USB_Host_Library/Core/Src/usbh_ctlreq.c ****         if (ep_ix < pif->bNumEndpoints)
 489:Middlewares/ST/STM32_USB_Host_Library/Core/Src/usbh_ctlreq.c ****         {
 490:Middlewares/ST/STM32_USB_Host_Library/Core/Src/usbh_ctlreq.c ****           return USBH_NOT_SUPPORTED;
 491:Middlewares/ST/STM32_USB_Host_Library/Core/Src/usbh_ctlreq.c ****         }
 492:Middlewares/ST/STM32_USB_Host_Library/Core/Src/usbh_ctlreq.c **** 
 493:Middlewares/ST/STM32_USB_Host_Library/Core/Src/usbh_ctlreq.c ****         if_ix++;
 494:Middlewares/ST/STM32_USB_Host_Library/Core/Src/usbh_ctlreq.c ****       }
 495:Middlewares/ST/STM32_USB_Host_Library/Core/Src/usbh_ctlreq.c ****     }
 496:Middlewares/ST/STM32_USB_Host_Library/Core/Src/usbh_ctlreq.c **** 
 497:Middlewares/ST/STM32_USB_Host_Library/Core/Src/usbh_ctlreq.c ****     /* Check if the required interface(s) data are parsed */
 498:Middlewares/ST/STM32_USB_Host_Library/Core/Src/usbh_ctlreq.c ****     if (if_ix < MIN(cfg_desc->bNumInterfaces, (uint8_t)USBH_MAX_NUM_INTERFACES))
 499:Middlewares/ST/STM32_USB_Host_Library/Core/Src/usbh_ctlreq.c ****     {
 500:Middlewares/ST/STM32_USB_Host_Library/Core/Src/usbh_ctlreq.c ****       return USBH_NOT_SUPPORTED;
 501:Middlewares/ST/STM32_USB_Host_Library/Core/Src/usbh_ctlreq.c ****     }
 502:Middlewares/ST/STM32_USB_Host_Library/Core/Src/usbh_ctlreq.c ****   }
 503:Middlewares/ST/STM32_USB_Host_Library/Core/Src/usbh_ctlreq.c **** 
 504:Middlewares/ST/STM32_USB_Host_Library/Core/Src/usbh_ctlreq.c ****   return status;
 505:Middlewares/ST/STM32_USB_Host_Library/Core/Src/usbh_ctlreq.c **** }
 506:Middlewares/ST/STM32_USB_Host_Library/Core/Src/usbh_ctlreq.c **** 
 507:Middlewares/ST/STM32_USB_Host_Library/Core/Src/usbh_ctlreq.c **** 
 508:Middlewares/ST/STM32_USB_Host_Library/Core/Src/usbh_ctlreq.c **** /**
 509:Middlewares/ST/STM32_USB_Host_Library/Core/Src/usbh_ctlreq.c ****   * @brief  USBH_ParseInterfaceDesc
 510:Middlewares/ST/STM32_USB_Host_Library/Core/Src/usbh_ctlreq.c ****   *         This function Parses the interface descriptor
 511:Middlewares/ST/STM32_USB_Host_Library/Core/Src/usbh_ctlreq.c ****   * @param  if_descriptor : Interface descriptor destination
 512:Middlewares/ST/STM32_USB_Host_Library/Core/Src/usbh_ctlreq.c ****   * @param  buf: Buffer where the descriptor data is available
 513:Middlewares/ST/STM32_USB_Host_Library/Core/Src/usbh_ctlreq.c ****   * @retval None
 514:Middlewares/ST/STM32_USB_Host_Library/Core/Src/usbh_ctlreq.c ****   */
 515:Middlewares/ST/STM32_USB_Host_Library/Core/Src/usbh_ctlreq.c **** static void  USBH_ParseInterfaceDesc(USBH_InterfaceDescTypeDef *if_descriptor,
 516:Middlewares/ST/STM32_USB_Host_Library/Core/Src/usbh_ctlreq.c ****                                      uint8_t *buf)
 517:Middlewares/ST/STM32_USB_Host_Library/Core/Src/usbh_ctlreq.c **** {
 157              		.loc 1 517 1 is_stmt 1 view -0
 158              		.cfi_startproc
 159              		@ args = 0, pretend = 0, frame = 0
 160              		@ frame_needed = 0, uses_anonymous_args = 0
 161              		@ link register save eliminated.
 518:Middlewares/ST/STM32_USB_Host_Library/Core/Src/usbh_ctlreq.c ****   if_descriptor->bLength            = *(uint8_t *)(buf + 0);
 162              		.loc 1 518 3 view .LVU44
 163              		.loc 1 518 39 is_stmt 0 view .LVU45
 164 0000 0B78     		ldrb	r3, [r1]	@ zero_extendqisi2
 165              		.loc 1 518 37 view .LVU46
 166 0002 0370     		strb	r3, [r0]
 519:Middlewares/ST/STM32_USB_Host_Library/Core/Src/usbh_ctlreq.c ****   if_descriptor->bDescriptorType    = *(uint8_t *)(buf + 1);
 167              		.loc 1 519 3 is_stmt 1 view .LVU47
 168              		.loc 1 519 37 is_stmt 0 view .LVU48
ARM GAS  /tmp/ccXjZKHH.s 			page 13


 169 0004 4B78     		ldrb	r3, [r1, #1]	@ zero_extendqisi2
 170 0006 4370     		strb	r3, [r0, #1]
 520:Middlewares/ST/STM32_USB_Host_Library/Core/Src/usbh_ctlreq.c ****   if_descriptor->bInterfaceNumber   = *(uint8_t *)(buf + 2);
 171              		.loc 1 520 3 is_stmt 1 view .LVU49
 172              		.loc 1 520 37 is_stmt 0 view .LVU50
 173 0008 8B78     		ldrb	r3, [r1, #2]	@ zero_extendqisi2
 174 000a 8370     		strb	r3, [r0, #2]
 521:Middlewares/ST/STM32_USB_Host_Library/Core/Src/usbh_ctlreq.c ****   if_descriptor->bAlternateSetting  = *(uint8_t *)(buf + 3);
 175              		.loc 1 521 3 is_stmt 1 view .LVU51
 176              		.loc 1 521 37 is_stmt 0 view .LVU52
 177 000c CB78     		ldrb	r3, [r1, #3]	@ zero_extendqisi2
 178 000e C370     		strb	r3, [r0, #3]
 522:Middlewares/ST/STM32_USB_Host_Library/Core/Src/usbh_ctlreq.c ****   if_descriptor->bNumEndpoints      = *(uint8_t *)(buf + 4);
 179              		.loc 1 522 3 is_stmt 1 view .LVU53
 180              		.loc 1 522 37 is_stmt 0 view .LVU54
 181 0010 0B79     		ldrb	r3, [r1, #4]	@ zero_extendqisi2
 182 0012 0371     		strb	r3, [r0, #4]
 523:Middlewares/ST/STM32_USB_Host_Library/Core/Src/usbh_ctlreq.c ****   if_descriptor->bInterfaceClass    = *(uint8_t *)(buf + 5);
 183              		.loc 1 523 3 is_stmt 1 view .LVU55
 184              		.loc 1 523 37 is_stmt 0 view .LVU56
 185 0014 4B79     		ldrb	r3, [r1, #5]	@ zero_extendqisi2
 186 0016 4371     		strb	r3, [r0, #5]
 524:Middlewares/ST/STM32_USB_Host_Library/Core/Src/usbh_ctlreq.c ****   if_descriptor->bInterfaceSubClass = *(uint8_t *)(buf + 6);
 187              		.loc 1 524 3 is_stmt 1 view .LVU57
 188              		.loc 1 524 37 is_stmt 0 view .LVU58
 189 0018 8B79     		ldrb	r3, [r1, #6]	@ zero_extendqisi2
 190 001a 8371     		strb	r3, [r0, #6]
 525:Middlewares/ST/STM32_USB_Host_Library/Core/Src/usbh_ctlreq.c ****   if_descriptor->bInterfaceProtocol = *(uint8_t *)(buf + 7);
 191              		.loc 1 525 3 is_stmt 1 view .LVU59
 192              		.loc 1 525 37 is_stmt 0 view .LVU60
 193 001c CB79     		ldrb	r3, [r1, #7]	@ zero_extendqisi2
 194 001e C371     		strb	r3, [r0, #7]
 526:Middlewares/ST/STM32_USB_Host_Library/Core/Src/usbh_ctlreq.c ****   if_descriptor->iInterface         = *(uint8_t *)(buf + 8);
 195              		.loc 1 526 3 is_stmt 1 view .LVU61
 196              		.loc 1 526 37 is_stmt 0 view .LVU62
 197 0020 0B7A     		ldrb	r3, [r1, #8]	@ zero_extendqisi2
 198 0022 0372     		strb	r3, [r0, #8]
 527:Middlewares/ST/STM32_USB_Host_Library/Core/Src/usbh_ctlreq.c **** }
 199              		.loc 1 527 1 view .LVU63
 200 0024 7047     		bx	lr
 201              		.cfi_endproc
 202              	.LFE144:
 204              		.section	.text.USBH_ParseEPDesc,"ax",%progbits
 205              		.align	1
 206              		.syntax unified
 207              		.thumb
 208              		.thumb_func
 209              		.fpu fpv4-sp-d16
 211              	USBH_ParseEPDesc:
 212              	.LVL3:
 213              	.LFB145:
 528:Middlewares/ST/STM32_USB_Host_Library/Core/Src/usbh_ctlreq.c **** 
 529:Middlewares/ST/STM32_USB_Host_Library/Core/Src/usbh_ctlreq.c **** 
 530:Middlewares/ST/STM32_USB_Host_Library/Core/Src/usbh_ctlreq.c **** /**
 531:Middlewares/ST/STM32_USB_Host_Library/Core/Src/usbh_ctlreq.c ****   * @brief  USBH_ParseEPDesc
 532:Middlewares/ST/STM32_USB_Host_Library/Core/Src/usbh_ctlreq.c ****   *         This function Parses the endpoint descriptor
 533:Middlewares/ST/STM32_USB_Host_Library/Core/Src/usbh_ctlreq.c ****   * @param  phost: USB Host handler
ARM GAS  /tmp/ccXjZKHH.s 			page 14


 534:Middlewares/ST/STM32_USB_Host_Library/Core/Src/usbh_ctlreq.c ****   * @param  ep_descriptor: Endpoint descriptor destination address
 535:Middlewares/ST/STM32_USB_Host_Library/Core/Src/usbh_ctlreq.c ****   * @param  buf: Buffer where the parsed descriptor stored
 536:Middlewares/ST/STM32_USB_Host_Library/Core/Src/usbh_ctlreq.c ****   * @retval USBH Status
 537:Middlewares/ST/STM32_USB_Host_Library/Core/Src/usbh_ctlreq.c ****   */
 538:Middlewares/ST/STM32_USB_Host_Library/Core/Src/usbh_ctlreq.c **** static USBH_StatusTypeDef  USBH_ParseEPDesc(USBH_HandleTypeDef *phost, USBH_EpDescTypeDef  *ep_desc
 539:Middlewares/ST/STM32_USB_Host_Library/Core/Src/usbh_ctlreq.c ****                                             uint8_t *buf)
 540:Middlewares/ST/STM32_USB_Host_Library/Core/Src/usbh_ctlreq.c **** {
 214              		.loc 1 540 1 is_stmt 1 view -0
 215              		.cfi_startproc
 216              		@ args = 0, pretend = 0, frame = 0
 217              		@ frame_needed = 0, uses_anonymous_args = 0
 218              		@ link register save eliminated.
 219              		.loc 1 540 1 is_stmt 0 view .LVU65
 220 0000 70B4     		push	{r4, r5, r6}
 221              	.LCFI2:
 222              		.cfi_def_cfa_offset 12
 223              		.cfi_offset 4, -12
 224              		.cfi_offset 5, -8
 225              		.cfi_offset 6, -4
 226 0002 0646     		mov	r6, r0
 541:Middlewares/ST/STM32_USB_Host_Library/Core/Src/usbh_ctlreq.c ****   USBH_StatusTypeDef status = USBH_OK;
 227              		.loc 1 541 3 is_stmt 1 view .LVU66
 228              	.LVL4:
 542:Middlewares/ST/STM32_USB_Host_Library/Core/Src/usbh_ctlreq.c ****   ep_descriptor->bLength          = *(uint8_t *)(buf + 0);
 229              		.loc 1 542 3 view .LVU67
 230              		.loc 1 542 37 is_stmt 0 view .LVU68
 231 0004 1378     		ldrb	r3, [r2]	@ zero_extendqisi2
 232              		.loc 1 542 35 view .LVU69
 233 0006 0B70     		strb	r3, [r1]
 543:Middlewares/ST/STM32_USB_Host_Library/Core/Src/usbh_ctlreq.c ****   ep_descriptor->bDescriptorType  = *(uint8_t *)(buf + 1);
 234              		.loc 1 543 3 is_stmt 1 view .LVU70
 235              		.loc 1 543 35 is_stmt 0 view .LVU71
 236 0008 5378     		ldrb	r3, [r2, #1]	@ zero_extendqisi2
 237 000a 4B70     		strb	r3, [r1, #1]
 544:Middlewares/ST/STM32_USB_Host_Library/Core/Src/usbh_ctlreq.c ****   ep_descriptor->bEndpointAddress = *(uint8_t *)(buf + 2);
 238              		.loc 1 544 3 is_stmt 1 view .LVU72
 239              		.loc 1 544 35 is_stmt 0 view .LVU73
 240 000c 9378     		ldrb	r3, [r2, #2]	@ zero_extendqisi2
 241 000e 8B70     		strb	r3, [r1, #2]
 545:Middlewares/ST/STM32_USB_Host_Library/Core/Src/usbh_ctlreq.c ****   ep_descriptor->bmAttributes     = *(uint8_t *)(buf + 3);
 242              		.loc 1 545 3 is_stmt 1 view .LVU74
 243              		.loc 1 545 35 is_stmt 0 view .LVU75
 244 0010 D478     		ldrb	r4, [r2, #3]	@ zero_extendqisi2
 245 0012 CC70     		strb	r4, [r1, #3]
 546:Middlewares/ST/STM32_USB_Host_Library/Core/Src/usbh_ctlreq.c ****   ep_descriptor->wMaxPacketSize   = LE16(buf + 4);
 246              		.loc 1 546 3 is_stmt 1 view .LVU76
 247              		.loc 1 546 37 is_stmt 0 view .LVU77
 248 0014 1379     		ldrb	r3, [r2, #4]	@ zero_extendqisi2
 249 0016 5079     		ldrb	r0, [r2, #5]	@ zero_extendqisi2
 250              	.LVL5:
 251              		.loc 1 546 37 view .LVU78
 252 0018 43EA0023 		orr	r3, r3, r0, lsl #8
 253              		.loc 1 546 35 view .LVU79
 254 001c 8B80     		strh	r3, [r1, #4]	@ movhi
 547:Middlewares/ST/STM32_USB_Host_Library/Core/Src/usbh_ctlreq.c ****   ep_descriptor->bInterval        = *(uint8_t *)(buf + 6);
 255              		.loc 1 547 3 is_stmt 1 view .LVU80
 256              		.loc 1 547 35 is_stmt 0 view .LVU81
ARM GAS  /tmp/ccXjZKHH.s 			page 15


 257 001e 9579     		ldrb	r5, [r2, #6]	@ zero_extendqisi2
 258 0020 8D71     		strb	r5, [r1, #6]
 548:Middlewares/ST/STM32_USB_Host_Library/Core/Src/usbh_ctlreq.c **** 
 549:Middlewares/ST/STM32_USB_Host_Library/Core/Src/usbh_ctlreq.c ****   /* Make sure that wMaxPacketSize is different from 0 */
 550:Middlewares/ST/STM32_USB_Host_Library/Core/Src/usbh_ctlreq.c ****   if (ep_descriptor->wMaxPacketSize == 0x00U)
 259              		.loc 1 550 3 is_stmt 1 view .LVU82
 260              		.loc 1 550 6 is_stmt 0 view .LVU83
 261 0022 EBB1     		cbz	r3, .L15
 551:Middlewares/ST/STM32_USB_Host_Library/Core/Src/usbh_ctlreq.c ****   {
 552:Middlewares/ST/STM32_USB_Host_Library/Core/Src/usbh_ctlreq.c ****     status = USBH_NOT_SUPPORTED;
 553:Middlewares/ST/STM32_USB_Host_Library/Core/Src/usbh_ctlreq.c ****   }
 554:Middlewares/ST/STM32_USB_Host_Library/Core/Src/usbh_ctlreq.c ****   else if (USBH_MAX_EP_PACKET_SIZE < (uint16_t)USBH_MAX_DATA_BUFFER)
 262              		.loc 1 554 8 is_stmt 1 view .LVU84
 555:Middlewares/ST/STM32_USB_Host_Library/Core/Src/usbh_ctlreq.c ****   {
 556:Middlewares/ST/STM32_USB_Host_Library/Core/Src/usbh_ctlreq.c ****     /* Make sure that maximum packet size (bits 0..10) does not exceed the max endpoint packet size
 557:Middlewares/ST/STM32_USB_Host_Library/Core/Src/usbh_ctlreq.c ****     ep_descriptor->wMaxPacketSize &= ~0x7FFU;
 558:Middlewares/ST/STM32_USB_Host_Library/Core/Src/usbh_ctlreq.c ****     ep_descriptor->wMaxPacketSize |=  MIN((uint16_t)(LE16(buf + 4) & 0x7FFU), (uint16_t)USBH_MAX_EP
 559:Middlewares/ST/STM32_USB_Host_Library/Core/Src/usbh_ctlreq.c **** 
 560:Middlewares/ST/STM32_USB_Host_Library/Core/Src/usbh_ctlreq.c ****   }
 561:Middlewares/ST/STM32_USB_Host_Library/Core/Src/usbh_ctlreq.c ****   else if ((uint16_t)USBH_MAX_DATA_BUFFER < USBH_MAX_EP_PACKET_SIZE)
 263              		.loc 1 561 8 view .LVU85
 562:Middlewares/ST/STM32_USB_Host_Library/Core/Src/usbh_ctlreq.c ****   {
 563:Middlewares/ST/STM32_USB_Host_Library/Core/Src/usbh_ctlreq.c ****     /* Make sure that maximum packet size (bits 0..10) does not exceed the total buffer length */
 564:Middlewares/ST/STM32_USB_Host_Library/Core/Src/usbh_ctlreq.c ****     ep_descriptor->wMaxPacketSize &= ~0x7FFU;
 264              		.loc 1 564 5 view .LVU86
 265              		.loc 1 564 35 is_stmt 0 view .LVU87
 266 0024 03F47843 		and	r3, r3, #63488
 267 0028 8B80     		strh	r3, [r1, #4]	@ movhi
 565:Middlewares/ST/STM32_USB_Host_Library/Core/Src/usbh_ctlreq.c ****     ep_descriptor->wMaxPacketSize |= MIN((uint16_t)(LE16(buf + 4) & 0x7FFU), (uint16_t)USBH_MAX_DAT
 268              		.loc 1 565 5 is_stmt 1 view .LVU88
 269              		.loc 1 565 35 is_stmt 0 view .LVU89
 270 002a 1BB2     		sxth	r3, r3
 271              		.loc 1 565 38 view .LVU90
 272 002c 1079     		ldrb	r0, [r2, #4]	@ zero_extendqisi2
 273 002e 5279     		ldrb	r2, [r2, #5]	@ zero_extendqisi2
 274              	.LVL6:
 275              		.loc 1 565 38 view .LVU91
 276 0030 40EA0222 		orr	r2, r0, r2, lsl #8
 277              		.loc 1 565 35 view .LVU92
 278 0034 12F4C06F 		tst	r2, #1536
 279 0038 02D1     		bne	.L16
 280              		.loc 1 565 35 discriminator 1 view .LVU93
 281 003a C2F30A02 		ubfx	r2, r2, #0, #11
 282 003e 01E0     		b	.L10
 283              	.L16:
 284              		.loc 1 565 35 view .LVU94
 285 0040 4FF40072 		mov	r2, #512
 286              	.L10:
 287              		.loc 1 565 35 discriminator 4 view .LVU95
 288 0044 1343     		orrs	r3, r3, r2
 289 0046 8B80     		strh	r3, [r1, #4]	@ movhi
 541:Middlewares/ST/STM32_USB_Host_Library/Core/Src/usbh_ctlreq.c ****   ep_descriptor->bLength          = *(uint8_t *)(buf + 0);
 290              		.loc 1 541 22 discriminator 4 view .LVU96
 291 0048 0020     		movs	r0, #0
 292              	.L9:
 293              	.LVL7:
 566:Middlewares/ST/STM32_USB_Host_Library/Core/Src/usbh_ctlreq.c ****   }
ARM GAS  /tmp/ccXjZKHH.s 			page 16


 567:Middlewares/ST/STM32_USB_Host_Library/Core/Src/usbh_ctlreq.c ****   else
 568:Middlewares/ST/STM32_USB_Host_Library/Core/Src/usbh_ctlreq.c ****   {
 569:Middlewares/ST/STM32_USB_Host_Library/Core/Src/usbh_ctlreq.c ****     /* ... */
 570:Middlewares/ST/STM32_USB_Host_Library/Core/Src/usbh_ctlreq.c ****   }
 294              		.loc 1 570 3 is_stmt 1 view .LVU97
 571:Middlewares/ST/STM32_USB_Host_Library/Core/Src/usbh_ctlreq.c **** 
 572:Middlewares/ST/STM32_USB_Host_Library/Core/Src/usbh_ctlreq.c ****   /* For high-speed interrupt/isochronous endpoints, bInterval can vary from 1 to 16 */
 573:Middlewares/ST/STM32_USB_Host_Library/Core/Src/usbh_ctlreq.c ****   if (phost->device.speed == (uint8_t)USBH_SPEED_HIGH)
 295              		.loc 1 573 3 view .LVU98
 296              		.loc 1 573 20 is_stmt 0 view .LVU99
 297 004a 96F81D33 		ldrb	r3, [r6, #797]	@ zero_extendqisi2
 298              		.loc 1 573 6 view .LVU100
 299 004e 7BB9     		cbnz	r3, .L11
 574:Middlewares/ST/STM32_USB_Host_Library/Core/Src/usbh_ctlreq.c ****   {
 575:Middlewares/ST/STM32_USB_Host_Library/Core/Src/usbh_ctlreq.c ****     if (((ep_descriptor->bmAttributes & EP_TYPE_MSK) == EP_TYPE_ISOC) ||
 300              		.loc 1 575 5 is_stmt 1 view .LVU101
 301 0050 04F00304 		and	r4, r4, #3
 302              		.loc 1 575 8 is_stmt 0 view .LVU102
 303 0054 012C     		cmp	r4, #1
 304 0056 05D0     		beq	.L12
 305              		.loc 1 575 71 discriminator 1 view .LVU103
 306 0058 032C     		cmp	r4, #3
 307 005a 03D0     		beq	.L12
 308              	.LVL8:
 309              	.L13:
 576:Middlewares/ST/STM32_USB_Host_Library/Core/Src/usbh_ctlreq.c ****         ((ep_descriptor->bmAttributes & EP_TYPE_MSK) == EP_TYPE_INTR))
 577:Middlewares/ST/STM32_USB_Host_Library/Core/Src/usbh_ctlreq.c ****     {
 578:Middlewares/ST/STM32_USB_Host_Library/Core/Src/usbh_ctlreq.c ****       if ((ep_descriptor->bInterval == 0U) || (ep_descriptor->bInterval > 0x10U))
 579:Middlewares/ST/STM32_USB_Host_Library/Core/Src/usbh_ctlreq.c ****       {
 580:Middlewares/ST/STM32_USB_Host_Library/Core/Src/usbh_ctlreq.c ****         status = USBH_NOT_SUPPORTED;
 581:Middlewares/ST/STM32_USB_Host_Library/Core/Src/usbh_ctlreq.c ****       }
 582:Middlewares/ST/STM32_USB_Host_Library/Core/Src/usbh_ctlreq.c ****     }
 583:Middlewares/ST/STM32_USB_Host_Library/Core/Src/usbh_ctlreq.c ****   }
 584:Middlewares/ST/STM32_USB_Host_Library/Core/Src/usbh_ctlreq.c ****   else
 585:Middlewares/ST/STM32_USB_Host_Library/Core/Src/usbh_ctlreq.c ****   {
 586:Middlewares/ST/STM32_USB_Host_Library/Core/Src/usbh_ctlreq.c ****     /* For full-speed isochronous endpoints, the value of bInterval must be in the range from 1 to 
 587:Middlewares/ST/STM32_USB_Host_Library/Core/Src/usbh_ctlreq.c ****     if ((ep_descriptor->bmAttributes & EP_TYPE_MSK) == EP_TYPE_ISOC)
 588:Middlewares/ST/STM32_USB_Host_Library/Core/Src/usbh_ctlreq.c ****     {
 589:Middlewares/ST/STM32_USB_Host_Library/Core/Src/usbh_ctlreq.c ****       if ((ep_descriptor->bInterval == 0U) || (ep_descriptor->bInterval > 0x10U))
 590:Middlewares/ST/STM32_USB_Host_Library/Core/Src/usbh_ctlreq.c ****       {
 591:Middlewares/ST/STM32_USB_Host_Library/Core/Src/usbh_ctlreq.c ****         status = USBH_NOT_SUPPORTED;
 592:Middlewares/ST/STM32_USB_Host_Library/Core/Src/usbh_ctlreq.c ****       }
 593:Middlewares/ST/STM32_USB_Host_Library/Core/Src/usbh_ctlreq.c ****     }
 594:Middlewares/ST/STM32_USB_Host_Library/Core/Src/usbh_ctlreq.c ****     /* For full-/low-speed interrupt endpoints, the value of bInterval may be from 1 to 255.*/
 595:Middlewares/ST/STM32_USB_Host_Library/Core/Src/usbh_ctlreq.c ****     else if ((ep_descriptor->bmAttributes & EP_TYPE_MSK) == EP_TYPE_INTR)
 596:Middlewares/ST/STM32_USB_Host_Library/Core/Src/usbh_ctlreq.c ****     {
 597:Middlewares/ST/STM32_USB_Host_Library/Core/Src/usbh_ctlreq.c ****       if (ep_descriptor->bInterval == 0U)
 598:Middlewares/ST/STM32_USB_Host_Library/Core/Src/usbh_ctlreq.c ****       {
 599:Middlewares/ST/STM32_USB_Host_Library/Core/Src/usbh_ctlreq.c ****         status = USBH_NOT_SUPPORTED;
 600:Middlewares/ST/STM32_USB_Host_Library/Core/Src/usbh_ctlreq.c ****       }
 601:Middlewares/ST/STM32_USB_Host_Library/Core/Src/usbh_ctlreq.c ****     }
 602:Middlewares/ST/STM32_USB_Host_Library/Core/Src/usbh_ctlreq.c ****     else
 603:Middlewares/ST/STM32_USB_Host_Library/Core/Src/usbh_ctlreq.c ****     {
 604:Middlewares/ST/STM32_USB_Host_Library/Core/Src/usbh_ctlreq.c ****       /* ... */
 605:Middlewares/ST/STM32_USB_Host_Library/Core/Src/usbh_ctlreq.c ****     }
 310              		.loc 1 605 5 is_stmt 1 view .LVU104
 606:Middlewares/ST/STM32_USB_Host_Library/Core/Src/usbh_ctlreq.c ****   }
ARM GAS  /tmp/ccXjZKHH.s 			page 17


 607:Middlewares/ST/STM32_USB_Host_Library/Core/Src/usbh_ctlreq.c **** 
 608:Middlewares/ST/STM32_USB_Host_Library/Core/Src/usbh_ctlreq.c ****   return status;
 311              		.loc 1 608 3 view .LVU105
 609:Middlewares/ST/STM32_USB_Host_Library/Core/Src/usbh_ctlreq.c **** }
 312              		.loc 1 609 1 is_stmt 0 view .LVU106
 313 005c 70BC     		pop	{r4, r5, r6}
 314              	.LCFI3:
 315              		.cfi_remember_state
 316              		.cfi_restore 6
 317              		.cfi_restore 5
 318              		.cfi_restore 4
 319              		.cfi_def_cfa_offset 0
 320              	.LVL9:
 321              		.loc 1 609 1 view .LVU107
 322 005e 7047     		bx	lr
 323              	.LVL10:
 324              	.L15:
 325              	.LCFI4:
 326              		.cfi_restore_state
 552:Middlewares/ST/STM32_USB_Host_Library/Core/Src/usbh_ctlreq.c ****   }
 327              		.loc 1 552 12 view .LVU108
 328 0060 0320     		movs	r0, #3
 329 0062 F2E7     		b	.L9
 330              	.LVL11:
 331              	.L12:
 578:Middlewares/ST/STM32_USB_Host_Library/Core/Src/usbh_ctlreq.c ****       {
 332              		.loc 1 578 7 is_stmt 1 view .LVU109
 578:Middlewares/ST/STM32_USB_Host_Library/Core/Src/usbh_ctlreq.c ****       {
 333              		.loc 1 578 44 is_stmt 0 view .LVU110
 334 0064 013D     		subs	r5, r5, #1
 335 0066 EDB2     		uxtb	r5, r5
 578:Middlewares/ST/STM32_USB_Host_Library/Core/Src/usbh_ctlreq.c ****       {
 336              		.loc 1 578 10 view .LVU111
 337 0068 0F2D     		cmp	r5, #15
 338 006a F7D9     		bls	.L13
 580:Middlewares/ST/STM32_USB_Host_Library/Core/Src/usbh_ctlreq.c ****       }
 339              		.loc 1 580 16 view .LVU112
 340 006c 0320     		movs	r0, #3
 341              	.LVL12:
 580:Middlewares/ST/STM32_USB_Host_Library/Core/Src/usbh_ctlreq.c ****       }
 342              		.loc 1 580 16 view .LVU113
 343 006e F5E7     		b	.L13
 344              	.LVL13:
 345              	.L11:
 587:Middlewares/ST/STM32_USB_Host_Library/Core/Src/usbh_ctlreq.c ****     {
 346              		.loc 1 587 5 is_stmt 1 view .LVU114
 347 0070 04F00304 		and	r4, r4, #3
 587:Middlewares/ST/STM32_USB_Host_Library/Core/Src/usbh_ctlreq.c ****     {
 348              		.loc 1 587 8 is_stmt 0 view .LVU115
 349 0074 012C     		cmp	r4, #1
 350 0076 05D0     		beq	.L21
 595:Middlewares/ST/STM32_USB_Host_Library/Core/Src/usbh_ctlreq.c ****     {
 351              		.loc 1 595 10 is_stmt 1 view .LVU116
 595:Middlewares/ST/STM32_USB_Host_Library/Core/Src/usbh_ctlreq.c ****     {
 352              		.loc 1 595 13 is_stmt 0 view .LVU117
 353 0078 032C     		cmp	r4, #3
 354 007a EFD1     		bne	.L13
ARM GAS  /tmp/ccXjZKHH.s 			page 18


 597:Middlewares/ST/STM32_USB_Host_Library/Core/Src/usbh_ctlreq.c ****       {
 355              		.loc 1 597 7 is_stmt 1 view .LVU118
 597:Middlewares/ST/STM32_USB_Host_Library/Core/Src/usbh_ctlreq.c ****       {
 356              		.loc 1 597 10 is_stmt 0 view .LVU119
 357 007c 002D     		cmp	r5, #0
 358 007e EDD1     		bne	.L13
 599:Middlewares/ST/STM32_USB_Host_Library/Core/Src/usbh_ctlreq.c ****       }
 359              		.loc 1 599 16 view .LVU120
 360 0080 2046     		mov	r0, r4
 361              	.LVL14:
 599:Middlewares/ST/STM32_USB_Host_Library/Core/Src/usbh_ctlreq.c ****       }
 362              		.loc 1 599 16 view .LVU121
 363 0082 EBE7     		b	.L13
 364              	.LVL15:
 365              	.L21:
 589:Middlewares/ST/STM32_USB_Host_Library/Core/Src/usbh_ctlreq.c ****       {
 366              		.loc 1 589 7 is_stmt 1 view .LVU122
 589:Middlewares/ST/STM32_USB_Host_Library/Core/Src/usbh_ctlreq.c ****       {
 367              		.loc 1 589 44 is_stmt 0 view .LVU123
 368 0084 013D     		subs	r5, r5, #1
 369 0086 EDB2     		uxtb	r5, r5
 589:Middlewares/ST/STM32_USB_Host_Library/Core/Src/usbh_ctlreq.c ****       {
 370              		.loc 1 589 10 view .LVU124
 371 0088 0F2D     		cmp	r5, #15
 372 008a E7D9     		bls	.L13
 591:Middlewares/ST/STM32_USB_Host_Library/Core/Src/usbh_ctlreq.c ****       }
 373              		.loc 1 591 16 view .LVU125
 374 008c 0320     		movs	r0, #3
 375              	.LVL16:
 591:Middlewares/ST/STM32_USB_Host_Library/Core/Src/usbh_ctlreq.c ****       }
 376              		.loc 1 591 16 view .LVU126
 377 008e E5E7     		b	.L13
 378              		.cfi_endproc
 379              	.LFE145:
 381              		.section	.text.USBH_ParseStringDesc,"ax",%progbits
 382              		.align	1
 383              		.syntax unified
 384              		.thumb
 385              		.thumb_func
 386              		.fpu fpv4-sp-d16
 388              	USBH_ParseStringDesc:
 389              	.LVL17:
 390              	.LFB146:
 610:Middlewares/ST/STM32_USB_Host_Library/Core/Src/usbh_ctlreq.c **** 
 611:Middlewares/ST/STM32_USB_Host_Library/Core/Src/usbh_ctlreq.c **** 
 612:Middlewares/ST/STM32_USB_Host_Library/Core/Src/usbh_ctlreq.c **** /**
 613:Middlewares/ST/STM32_USB_Host_Library/Core/Src/usbh_ctlreq.c ****   * @brief  USBH_ParseStringDesc
 614:Middlewares/ST/STM32_USB_Host_Library/Core/Src/usbh_ctlreq.c ****   *         This function Parses the string descriptor
 615:Middlewares/ST/STM32_USB_Host_Library/Core/Src/usbh_ctlreq.c ****   * @param  psrc: Source pointer containing the descriptor data
 616:Middlewares/ST/STM32_USB_Host_Library/Core/Src/usbh_ctlreq.c ****   * @param  pdest: Destination address pointer
 617:Middlewares/ST/STM32_USB_Host_Library/Core/Src/usbh_ctlreq.c ****   * @param  length: Length of the descriptor
 618:Middlewares/ST/STM32_USB_Host_Library/Core/Src/usbh_ctlreq.c ****   * @retval None
 619:Middlewares/ST/STM32_USB_Host_Library/Core/Src/usbh_ctlreq.c ****   */
 620:Middlewares/ST/STM32_USB_Host_Library/Core/Src/usbh_ctlreq.c **** static void USBH_ParseStringDesc(uint8_t *psrc, uint8_t *pdest, uint16_t length)
 621:Middlewares/ST/STM32_USB_Host_Library/Core/Src/usbh_ctlreq.c **** {
 391              		.loc 1 621 1 is_stmt 1 view -0
 392              		.cfi_startproc
ARM GAS  /tmp/ccXjZKHH.s 			page 19


 393              		@ args = 0, pretend = 0, frame = 0
 394              		@ frame_needed = 0, uses_anonymous_args = 0
 395              		@ link register save eliminated.
 622:Middlewares/ST/STM32_USB_Host_Library/Core/Src/usbh_ctlreq.c ****   uint16_t strlength;
 396              		.loc 1 622 3 view .LVU128
 623:Middlewares/ST/STM32_USB_Host_Library/Core/Src/usbh_ctlreq.c ****   uint16_t idx;
 397              		.loc 1 623 3 view .LVU129
 624:Middlewares/ST/STM32_USB_Host_Library/Core/Src/usbh_ctlreq.c **** 
 625:Middlewares/ST/STM32_USB_Host_Library/Core/Src/usbh_ctlreq.c ****   /* The UNICODE string descriptor is not NULL-terminated. The string length is
 626:Middlewares/ST/STM32_USB_Host_Library/Core/Src/usbh_ctlreq.c ****   computed by subtracting two from the value of the first byte of the descriptor.
 627:Middlewares/ST/STM32_USB_Host_Library/Core/Src/usbh_ctlreq.c ****   */
 628:Middlewares/ST/STM32_USB_Host_Library/Core/Src/usbh_ctlreq.c **** 
 629:Middlewares/ST/STM32_USB_Host_Library/Core/Src/usbh_ctlreq.c ****   /* Check which is lower size, the Size of string or the length of bytes read
 630:Middlewares/ST/STM32_USB_Host_Library/Core/Src/usbh_ctlreq.c ****   from the device */
 631:Middlewares/ST/STM32_USB_Host_Library/Core/Src/usbh_ctlreq.c **** 
 632:Middlewares/ST/STM32_USB_Host_Library/Core/Src/usbh_ctlreq.c ****   if (psrc[1] == USB_DESC_TYPE_STRING)
 398              		.loc 1 632 3 view .LVU130
 399              		.loc 1 632 11 is_stmt 0 view .LVU131
 400 0000 4378     		ldrb	r3, [r0, #1]	@ zero_extendqisi2
 401              		.loc 1 632 6 view .LVU132
 402 0002 032B     		cmp	r3, #3
 403 0004 00D0     		beq	.L32
 404 0006 7047     		bx	lr
 405              	.L32:
 633:Middlewares/ST/STM32_USB_Host_Library/Core/Src/usbh_ctlreq.c ****   {
 634:Middlewares/ST/STM32_USB_Host_Library/Core/Src/usbh_ctlreq.c ****     /* Make sure the Descriptor is String Type */
 635:Middlewares/ST/STM32_USB_Host_Library/Core/Src/usbh_ctlreq.c **** 
 636:Middlewares/ST/STM32_USB_Host_Library/Core/Src/usbh_ctlreq.c ****     /* psrc[0] contains Size of Descriptor, subtract 2 to get the length of string */
 637:Middlewares/ST/STM32_USB_Host_Library/Core/Src/usbh_ctlreq.c ****     strlength = ((((uint16_t)psrc[0] - 2U) <= length) ? ((uint16_t)psrc[0] - 2U) : length);
 406              		.loc 1 637 5 is_stmt 1 view .LVU133
 407              		.loc 1 637 34 is_stmt 0 view .LVU134
 408 0008 0378     		ldrb	r3, [r0]	@ zero_extendqisi2
 409              		.loc 1 637 38 view .LVU135
 410 000a 023B     		subs	r3, r3, #2
 411              		.loc 1 637 82 view .LVU136
 412 000c 9A42     		cmp	r2, r3
 413 000e 28BF     		it	cs
 414 0010 1A46     		movcs	r2, r3
 415              	.LVL18:
 416              		.loc 1 637 15 view .LVU137
 417 0012 92B2     		uxth	r2, r2
 418              	.LVL19:
 638:Middlewares/ST/STM32_USB_Host_Library/Core/Src/usbh_ctlreq.c **** 
 639:Middlewares/ST/STM32_USB_Host_Library/Core/Src/usbh_ctlreq.c ****     /* Adjust the offset ignoring the String Len and Descriptor type */
 640:Middlewares/ST/STM32_USB_Host_Library/Core/Src/usbh_ctlreq.c ****     psrc += 2U;
 419              		.loc 1 640 5 is_stmt 1 view .LVU138
 641:Middlewares/ST/STM32_USB_Host_Library/Core/Src/usbh_ctlreq.c **** 
 642:Middlewares/ST/STM32_USB_Host_Library/Core/Src/usbh_ctlreq.c ****     for (idx = 0U; idx < strlength; idx += 2U)
 420              		.loc 1 642 5 view .LVU139
 421              		.loc 1 642 14 is_stmt 0 view .LVU140
 422 0014 0023     		movs	r3, #0
 423              	.LVL20:
 424              		.loc 1 642 20 is_stmt 1 view .LVU141
 425              		.loc 1 642 5 is_stmt 0 view .LVU142
 426 0016 9342     		cmp	r3, r2
 427 0018 0DD2     		bcs	.L33
 621:Middlewares/ST/STM32_USB_Host_Library/Core/Src/usbh_ctlreq.c ****   uint16_t strlength;
ARM GAS  /tmp/ccXjZKHH.s 			page 20


 428              		.loc 1 621 1 view .LVU143
 429 001a 10B4     		push	{r4}
 430              	.LCFI5:
 431              		.cfi_def_cfa_offset 4
 432              		.cfi_offset 4, -4
 433              	.L25:
 643:Middlewares/ST/STM32_USB_Host_Library/Core/Src/usbh_ctlreq.c ****     {
 644:Middlewares/ST/STM32_USB_Host_Library/Core/Src/usbh_ctlreq.c ****       /* Copy Only the string and ignore the UNICODE ID, hence add the src */
 645:Middlewares/ST/STM32_USB_Host_Library/Core/Src/usbh_ctlreq.c ****       *pdest =  psrc[idx];
 434              		.loc 1 645 7 is_stmt 1 discriminator 3 view .LVU144
 435              		.loc 1 645 21 is_stmt 0 discriminator 3 view .LVU145
 436 001c C418     		adds	r4, r0, r3
 437 001e A478     		ldrb	r4, [r4, #2]	@ zero_extendqisi2
 438              		.loc 1 645 14 discriminator 3 view .LVU146
 439 0020 01F8014B 		strb	r4, [r1], #1
 440              	.LVL21:
 646:Middlewares/ST/STM32_USB_Host_Library/Core/Src/usbh_ctlreq.c ****       pdest++;
 441              		.loc 1 646 7 is_stmt 1 discriminator 3 view .LVU147
 642:Middlewares/ST/STM32_USB_Host_Library/Core/Src/usbh_ctlreq.c ****     {
 442              		.loc 1 642 37 discriminator 3 view .LVU148
 642:Middlewares/ST/STM32_USB_Host_Library/Core/Src/usbh_ctlreq.c ****     {
 443              		.loc 1 642 41 is_stmt 0 discriminator 3 view .LVU149
 444 0024 0233     		adds	r3, r3, #2
 445              	.LVL22:
 642:Middlewares/ST/STM32_USB_Host_Library/Core/Src/usbh_ctlreq.c ****     {
 446              		.loc 1 642 41 discriminator 3 view .LVU150
 447 0026 9BB2     		uxth	r3, r3
 448              	.LVL23:
 642:Middlewares/ST/STM32_USB_Host_Library/Core/Src/usbh_ctlreq.c ****     {
 449              		.loc 1 642 20 is_stmt 1 discriminator 3 view .LVU151
 642:Middlewares/ST/STM32_USB_Host_Library/Core/Src/usbh_ctlreq.c ****     {
 450              		.loc 1 642 5 is_stmt 0 discriminator 3 view .LVU152
 451 0028 9342     		cmp	r3, r2
 452 002a F7D3     		bcc	.L25
 647:Middlewares/ST/STM32_USB_Host_Library/Core/Src/usbh_ctlreq.c ****     }
 648:Middlewares/ST/STM32_USB_Host_Library/Core/Src/usbh_ctlreq.c ****     *pdest = 0U; /* mark end of string */
 453              		.loc 1 648 5 is_stmt 1 view .LVU153
 454              		.loc 1 648 12 is_stmt 0 view .LVU154
 455 002c 0023     		movs	r3, #0
 456              	.LVL24:
 457              		.loc 1 648 12 view .LVU155
 458 002e 0B70     		strb	r3, [r1]
 649:Middlewares/ST/STM32_USB_Host_Library/Core/Src/usbh_ctlreq.c ****   }
 650:Middlewares/ST/STM32_USB_Host_Library/Core/Src/usbh_ctlreq.c **** }
 459              		.loc 1 650 1 view .LVU156
 460 0030 5DF8044B 		ldr	r4, [sp], #4
 461              	.LCFI6:
 462              		.cfi_restore 4
 463              		.cfi_def_cfa_offset 0
 464 0034 7047     		bx	lr
 465              	.LVL25:
 466              	.L33:
 648:Middlewares/ST/STM32_USB_Host_Library/Core/Src/usbh_ctlreq.c ****   }
 467              		.loc 1 648 5 is_stmt 1 view .LVU157
 648:Middlewares/ST/STM32_USB_Host_Library/Core/Src/usbh_ctlreq.c ****   }
 468              		.loc 1 648 12 is_stmt 0 view .LVU158
 469 0036 0023     		movs	r3, #0
ARM GAS  /tmp/ccXjZKHH.s 			page 21


 648:Middlewares/ST/STM32_USB_Host_Library/Core/Src/usbh_ctlreq.c ****   }
 470              		.loc 1 648 12 view .LVU159
 471 0038 0B70     		strb	r3, [r1]
 472 003a 7047     		bx	lr
 473              		.cfi_endproc
 474              	.LFE146:
 476              		.section	.text.USBH_HandleControl,"ax",%progbits
 477              		.align	1
 478              		.syntax unified
 479              		.thumb
 480              		.thumb_func
 481              		.fpu fpv4-sp-d16
 483              	USBH_HandleControl:
 484              	.LVL26:
 485              	.LFB149:
 651:Middlewares/ST/STM32_USB_Host_Library/Core/Src/usbh_ctlreq.c **** 
 652:Middlewares/ST/STM32_USB_Host_Library/Core/Src/usbh_ctlreq.c **** 
 653:Middlewares/ST/STM32_USB_Host_Library/Core/Src/usbh_ctlreq.c **** /**
 654:Middlewares/ST/STM32_USB_Host_Library/Core/Src/usbh_ctlreq.c ****   * @brief  USBH_GetNextDesc
 655:Middlewares/ST/STM32_USB_Host_Library/Core/Src/usbh_ctlreq.c ****   *         This function return the next descriptor header
 656:Middlewares/ST/STM32_USB_Host_Library/Core/Src/usbh_ctlreq.c ****   * @param  buf: Buffer where the cfg descriptor is available
 657:Middlewares/ST/STM32_USB_Host_Library/Core/Src/usbh_ctlreq.c ****   * @param  ptr: data pointer inside the cfg descriptor
 658:Middlewares/ST/STM32_USB_Host_Library/Core/Src/usbh_ctlreq.c ****   * @retval next header
 659:Middlewares/ST/STM32_USB_Host_Library/Core/Src/usbh_ctlreq.c ****   */
 660:Middlewares/ST/STM32_USB_Host_Library/Core/Src/usbh_ctlreq.c **** USBH_DescHeader_t  *USBH_GetNextDesc(uint8_t   *pbuf, uint16_t  *ptr)
 661:Middlewares/ST/STM32_USB_Host_Library/Core/Src/usbh_ctlreq.c **** {
 662:Middlewares/ST/STM32_USB_Host_Library/Core/Src/usbh_ctlreq.c ****   USBH_DescHeader_t  *pnext;
 663:Middlewares/ST/STM32_USB_Host_Library/Core/Src/usbh_ctlreq.c **** 
 664:Middlewares/ST/STM32_USB_Host_Library/Core/Src/usbh_ctlreq.c ****   *ptr += ((USBH_DescHeader_t *)(void *)pbuf)->bLength;
 665:Middlewares/ST/STM32_USB_Host_Library/Core/Src/usbh_ctlreq.c ****   pnext = (USBH_DescHeader_t *)(void *)((uint8_t *)(void *)pbuf + \
 666:Middlewares/ST/STM32_USB_Host_Library/Core/Src/usbh_ctlreq.c ****                                         ((USBH_DescHeader_t *)(void *)pbuf)->bLength);
 667:Middlewares/ST/STM32_USB_Host_Library/Core/Src/usbh_ctlreq.c **** 
 668:Middlewares/ST/STM32_USB_Host_Library/Core/Src/usbh_ctlreq.c ****   return (pnext);
 669:Middlewares/ST/STM32_USB_Host_Library/Core/Src/usbh_ctlreq.c **** }
 670:Middlewares/ST/STM32_USB_Host_Library/Core/Src/usbh_ctlreq.c **** 
 671:Middlewares/ST/STM32_USB_Host_Library/Core/Src/usbh_ctlreq.c **** 
 672:Middlewares/ST/STM32_USB_Host_Library/Core/Src/usbh_ctlreq.c **** /**
 673:Middlewares/ST/STM32_USB_Host_Library/Core/Src/usbh_ctlreq.c ****   * @brief  USBH_CtlReq
 674:Middlewares/ST/STM32_USB_Host_Library/Core/Src/usbh_ctlreq.c ****   *         USBH_CtlReq sends a control request and provide the status after
 675:Middlewares/ST/STM32_USB_Host_Library/Core/Src/usbh_ctlreq.c ****   *            completion of the request
 676:Middlewares/ST/STM32_USB_Host_Library/Core/Src/usbh_ctlreq.c ****   * @param  phost: Host Handle
 677:Middlewares/ST/STM32_USB_Host_Library/Core/Src/usbh_ctlreq.c ****   * @param  req: Setup Request Structure
 678:Middlewares/ST/STM32_USB_Host_Library/Core/Src/usbh_ctlreq.c ****   * @param  buff: data buffer address to store the response
 679:Middlewares/ST/STM32_USB_Host_Library/Core/Src/usbh_ctlreq.c ****   * @param  length: length of the response
 680:Middlewares/ST/STM32_USB_Host_Library/Core/Src/usbh_ctlreq.c ****   * @retval USBH Status
 681:Middlewares/ST/STM32_USB_Host_Library/Core/Src/usbh_ctlreq.c ****   */
 682:Middlewares/ST/STM32_USB_Host_Library/Core/Src/usbh_ctlreq.c **** USBH_StatusTypeDef USBH_CtlReq(USBH_HandleTypeDef *phost, uint8_t *buff,
 683:Middlewares/ST/STM32_USB_Host_Library/Core/Src/usbh_ctlreq.c ****                                uint16_t length)
 684:Middlewares/ST/STM32_USB_Host_Library/Core/Src/usbh_ctlreq.c **** {
 685:Middlewares/ST/STM32_USB_Host_Library/Core/Src/usbh_ctlreq.c ****   USBH_StatusTypeDef status;
 686:Middlewares/ST/STM32_USB_Host_Library/Core/Src/usbh_ctlreq.c ****   status = USBH_BUSY;
 687:Middlewares/ST/STM32_USB_Host_Library/Core/Src/usbh_ctlreq.c **** 
 688:Middlewares/ST/STM32_USB_Host_Library/Core/Src/usbh_ctlreq.c ****   switch (phost->RequestState)
 689:Middlewares/ST/STM32_USB_Host_Library/Core/Src/usbh_ctlreq.c ****   {
 690:Middlewares/ST/STM32_USB_Host_Library/Core/Src/usbh_ctlreq.c ****     case CMD_SEND:
 691:Middlewares/ST/STM32_USB_Host_Library/Core/Src/usbh_ctlreq.c ****       /* Start a SETUP transfer */
 692:Middlewares/ST/STM32_USB_Host_Library/Core/Src/usbh_ctlreq.c ****       phost->Control.buff = buff;
ARM GAS  /tmp/ccXjZKHH.s 			page 22


 693:Middlewares/ST/STM32_USB_Host_Library/Core/Src/usbh_ctlreq.c ****       phost->Control.length = length;
 694:Middlewares/ST/STM32_USB_Host_Library/Core/Src/usbh_ctlreq.c ****       phost->Control.state = CTRL_SETUP;
 695:Middlewares/ST/STM32_USB_Host_Library/Core/Src/usbh_ctlreq.c ****       phost->RequestState = CMD_WAIT;
 696:Middlewares/ST/STM32_USB_Host_Library/Core/Src/usbh_ctlreq.c ****       status = USBH_BUSY;
 697:Middlewares/ST/STM32_USB_Host_Library/Core/Src/usbh_ctlreq.c **** 
 698:Middlewares/ST/STM32_USB_Host_Library/Core/Src/usbh_ctlreq.c **** #if (USBH_USE_OS == 1U)
 699:Middlewares/ST/STM32_USB_Host_Library/Core/Src/usbh_ctlreq.c ****       phost->os_msg = (uint32_t)USBH_CONTROL_EVENT;
 700:Middlewares/ST/STM32_USB_Host_Library/Core/Src/usbh_ctlreq.c **** #if (osCMSIS < 0x20000U)
 701:Middlewares/ST/STM32_USB_Host_Library/Core/Src/usbh_ctlreq.c ****       (void)osMessagePut(phost->os_event, phost->os_msg, 0U);
 702:Middlewares/ST/STM32_USB_Host_Library/Core/Src/usbh_ctlreq.c **** #else
 703:Middlewares/ST/STM32_USB_Host_Library/Core/Src/usbh_ctlreq.c ****       (void)osMessageQueuePut(phost->os_event, &phost->os_msg, 0U, 0U);
 704:Middlewares/ST/STM32_USB_Host_Library/Core/Src/usbh_ctlreq.c **** #endif
 705:Middlewares/ST/STM32_USB_Host_Library/Core/Src/usbh_ctlreq.c **** #endif
 706:Middlewares/ST/STM32_USB_Host_Library/Core/Src/usbh_ctlreq.c ****       break;
 707:Middlewares/ST/STM32_USB_Host_Library/Core/Src/usbh_ctlreq.c **** 
 708:Middlewares/ST/STM32_USB_Host_Library/Core/Src/usbh_ctlreq.c ****     case CMD_WAIT:
 709:Middlewares/ST/STM32_USB_Host_Library/Core/Src/usbh_ctlreq.c ****       status = USBH_HandleControl(phost);
 710:Middlewares/ST/STM32_USB_Host_Library/Core/Src/usbh_ctlreq.c ****       if ((status == USBH_OK) || (status == USBH_NOT_SUPPORTED))
 711:Middlewares/ST/STM32_USB_Host_Library/Core/Src/usbh_ctlreq.c ****       {
 712:Middlewares/ST/STM32_USB_Host_Library/Core/Src/usbh_ctlreq.c ****         /* Transaction completed, move control state to idle */
 713:Middlewares/ST/STM32_USB_Host_Library/Core/Src/usbh_ctlreq.c ****         phost->RequestState = CMD_SEND;
 714:Middlewares/ST/STM32_USB_Host_Library/Core/Src/usbh_ctlreq.c ****         phost->Control.state = CTRL_IDLE;
 715:Middlewares/ST/STM32_USB_Host_Library/Core/Src/usbh_ctlreq.c ****       }
 716:Middlewares/ST/STM32_USB_Host_Library/Core/Src/usbh_ctlreq.c ****       else if (status == USBH_FAIL)
 717:Middlewares/ST/STM32_USB_Host_Library/Core/Src/usbh_ctlreq.c ****       {
 718:Middlewares/ST/STM32_USB_Host_Library/Core/Src/usbh_ctlreq.c ****         /* Failure Mode */
 719:Middlewares/ST/STM32_USB_Host_Library/Core/Src/usbh_ctlreq.c ****         phost->RequestState = CMD_SEND;
 720:Middlewares/ST/STM32_USB_Host_Library/Core/Src/usbh_ctlreq.c ****       }
 721:Middlewares/ST/STM32_USB_Host_Library/Core/Src/usbh_ctlreq.c ****       else
 722:Middlewares/ST/STM32_USB_Host_Library/Core/Src/usbh_ctlreq.c ****       {
 723:Middlewares/ST/STM32_USB_Host_Library/Core/Src/usbh_ctlreq.c ****         /* .. */
 724:Middlewares/ST/STM32_USB_Host_Library/Core/Src/usbh_ctlreq.c ****       }
 725:Middlewares/ST/STM32_USB_Host_Library/Core/Src/usbh_ctlreq.c **** #if (USBH_USE_OS == 1U)
 726:Middlewares/ST/STM32_USB_Host_Library/Core/Src/usbh_ctlreq.c ****       phost->os_msg = (uint32_t)USBH_CONTROL_EVENT;
 727:Middlewares/ST/STM32_USB_Host_Library/Core/Src/usbh_ctlreq.c **** #if (osCMSIS < 0x20000U)
 728:Middlewares/ST/STM32_USB_Host_Library/Core/Src/usbh_ctlreq.c ****       (void)osMessagePut(phost->os_event, phost->os_msg, 0U);
 729:Middlewares/ST/STM32_USB_Host_Library/Core/Src/usbh_ctlreq.c **** #else
 730:Middlewares/ST/STM32_USB_Host_Library/Core/Src/usbh_ctlreq.c ****       (void)osMessageQueuePut(phost->os_event, &phost->os_msg, 0U, 0U);
 731:Middlewares/ST/STM32_USB_Host_Library/Core/Src/usbh_ctlreq.c **** #endif
 732:Middlewares/ST/STM32_USB_Host_Library/Core/Src/usbh_ctlreq.c **** #endif
 733:Middlewares/ST/STM32_USB_Host_Library/Core/Src/usbh_ctlreq.c ****       break;
 734:Middlewares/ST/STM32_USB_Host_Library/Core/Src/usbh_ctlreq.c **** 
 735:Middlewares/ST/STM32_USB_Host_Library/Core/Src/usbh_ctlreq.c ****     default:
 736:Middlewares/ST/STM32_USB_Host_Library/Core/Src/usbh_ctlreq.c ****       break;
 737:Middlewares/ST/STM32_USB_Host_Library/Core/Src/usbh_ctlreq.c ****   }
 738:Middlewares/ST/STM32_USB_Host_Library/Core/Src/usbh_ctlreq.c ****   return status;
 739:Middlewares/ST/STM32_USB_Host_Library/Core/Src/usbh_ctlreq.c **** }
 740:Middlewares/ST/STM32_USB_Host_Library/Core/Src/usbh_ctlreq.c **** 
 741:Middlewares/ST/STM32_USB_Host_Library/Core/Src/usbh_ctlreq.c **** 
 742:Middlewares/ST/STM32_USB_Host_Library/Core/Src/usbh_ctlreq.c **** /**
 743:Middlewares/ST/STM32_USB_Host_Library/Core/Src/usbh_ctlreq.c ****   * @brief  USBH_HandleControl
 744:Middlewares/ST/STM32_USB_Host_Library/Core/Src/usbh_ctlreq.c ****   *         Handles the USB control transfer state machine
 745:Middlewares/ST/STM32_USB_Host_Library/Core/Src/usbh_ctlreq.c ****   * @param  phost: Host Handle
 746:Middlewares/ST/STM32_USB_Host_Library/Core/Src/usbh_ctlreq.c ****   * @retval USBH Status
 747:Middlewares/ST/STM32_USB_Host_Library/Core/Src/usbh_ctlreq.c ****   */
 748:Middlewares/ST/STM32_USB_Host_Library/Core/Src/usbh_ctlreq.c **** static USBH_StatusTypeDef USBH_HandleControl(USBH_HandleTypeDef *phost)
 749:Middlewares/ST/STM32_USB_Host_Library/Core/Src/usbh_ctlreq.c **** {
ARM GAS  /tmp/ccXjZKHH.s 			page 23


 486              		.loc 1 749 1 is_stmt 1 view -0
 487              		.cfi_startproc
 488              		@ args = 0, pretend = 0, frame = 0
 489              		@ frame_needed = 0, uses_anonymous_args = 0
 490              		.loc 1 749 1 is_stmt 0 view .LVU161
 491 0000 30B5     		push	{r4, r5, lr}
 492              	.LCFI7:
 493              		.cfi_def_cfa_offset 12
 494              		.cfi_offset 4, -12
 495              		.cfi_offset 5, -8
 496              		.cfi_offset 14, -4
 497 0002 83B0     		sub	sp, sp, #12
 498              	.LCFI8:
 499              		.cfi_def_cfa_offset 24
 500 0004 0446     		mov	r4, r0
 750:Middlewares/ST/STM32_USB_Host_Library/Core/Src/usbh_ctlreq.c ****   uint8_t direction;
 501              		.loc 1 750 3 is_stmt 1 view .LVU162
 751:Middlewares/ST/STM32_USB_Host_Library/Core/Src/usbh_ctlreq.c ****   USBH_StatusTypeDef status = USBH_BUSY;
 502              		.loc 1 751 3 view .LVU163
 503              	.LVL27:
 752:Middlewares/ST/STM32_USB_Host_Library/Core/Src/usbh_ctlreq.c ****   USBH_URBStateTypeDef URB_Status = USBH_URB_IDLE;
 504              		.loc 1 752 3 view .LVU164
 753:Middlewares/ST/STM32_USB_Host_Library/Core/Src/usbh_ctlreq.c **** 
 754:Middlewares/ST/STM32_USB_Host_Library/Core/Src/usbh_ctlreq.c ****   switch (phost->Control.state)
 505              		.loc 1 754 3 view .LVU165
 506              		.loc 1 754 25 is_stmt 0 view .LVU166
 507 0006 057E     		ldrb	r5, [r0, #24]	@ zero_extendqisi2
 508 0008 6B1E     		subs	r3, r5, #1
 509 000a 0A2B     		cmp	r3, #10
 510 000c 00F2DE80 		bhi	.L62
 511 0010 DFE803F0 		tbb	[pc, r3]
 512              	.L37:
 513 0014 06       		.byte	(.L47-.L37)/2
 514 0015 10       		.byte	(.L46-.L37)/2
 515 0016 35       		.byte	(.L45-.L37)/2
 516 0017 41       		.byte	(.L44-.L37)/2
 517 0018 54       		.byte	(.L43-.L37)/2
 518 0019 61       		.byte	(.L42-.L37)/2
 519 001a 7E       		.byte	(.L41-.L37)/2
 520 001b 8A       		.byte	(.L40-.L37)/2
 521 001c 9D       		.byte	(.L39-.L37)/2
 522 001d AA       		.byte	(.L38-.L37)/2
 523 001e C1       		.byte	(.L36-.L37)/2
 524 001f 00       		.p2align 1
 525              	.L47:
 755:Middlewares/ST/STM32_USB_Host_Library/Core/Src/usbh_ctlreq.c ****   {
 756:Middlewares/ST/STM32_USB_Host_Library/Core/Src/usbh_ctlreq.c ****     case CTRL_SETUP:
 757:Middlewares/ST/STM32_USB_Host_Library/Core/Src/usbh_ctlreq.c ****       /* send a SETUP packet */
 758:Middlewares/ST/STM32_USB_Host_Library/Core/Src/usbh_ctlreq.c ****       (void)USBH_CtlSendSetup(phost, (uint8_t *)(void *)phost->Control.setup.d8,
 526              		.loc 1 758 7 is_stmt 1 view .LVU167
 527              		.loc 1 758 13 is_stmt 0 view .LVU168
 528 0020 4279     		ldrb	r2, [r0, #5]	@ zero_extendqisi2
 529 0022 00F11001 		add	r1, r0, #16
 530 0026 FFF7FEFF 		bl	USBH_CtlSendSetup
 531              	.LVL28:
 759:Middlewares/ST/STM32_USB_Host_Library/Core/Src/usbh_ctlreq.c ****                               phost->Control.pipe_out);
 760:Middlewares/ST/STM32_USB_Host_Library/Core/Src/usbh_ctlreq.c **** 
ARM GAS  /tmp/ccXjZKHH.s 			page 24


 761:Middlewares/ST/STM32_USB_Host_Library/Core/Src/usbh_ctlreq.c ****       phost->Control.state = CTRL_SETUP_WAIT;
 532              		.loc 1 761 7 is_stmt 1 view .LVU169
 533              		.loc 1 761 28 is_stmt 0 view .LVU170
 534 002a 0223     		movs	r3, #2
 535 002c 2376     		strb	r3, [r4, #24]
 762:Middlewares/ST/STM32_USB_Host_Library/Core/Src/usbh_ctlreq.c ****       break;
 536              		.loc 1 762 7 is_stmt 1 view .LVU171
 537              	.LVL29:
 538              	.L35:
 763:Middlewares/ST/STM32_USB_Host_Library/Core/Src/usbh_ctlreq.c **** 
 764:Middlewares/ST/STM32_USB_Host_Library/Core/Src/usbh_ctlreq.c ****     case CTRL_SETUP_WAIT:
 765:Middlewares/ST/STM32_USB_Host_Library/Core/Src/usbh_ctlreq.c **** 
 766:Middlewares/ST/STM32_USB_Host_Library/Core/Src/usbh_ctlreq.c ****       URB_Status = USBH_LL_GetURBState(phost, phost->Control.pipe_out);
 767:Middlewares/ST/STM32_USB_Host_Library/Core/Src/usbh_ctlreq.c ****       /* case SETUP packet sent successfully */
 768:Middlewares/ST/STM32_USB_Host_Library/Core/Src/usbh_ctlreq.c ****       if (URB_Status == USBH_URB_DONE)
 769:Middlewares/ST/STM32_USB_Host_Library/Core/Src/usbh_ctlreq.c ****       {
 770:Middlewares/ST/STM32_USB_Host_Library/Core/Src/usbh_ctlreq.c ****         direction = (phost->Control.setup.b.bmRequestType & USB_REQ_DIR_MASK);
 771:Middlewares/ST/STM32_USB_Host_Library/Core/Src/usbh_ctlreq.c **** 
 772:Middlewares/ST/STM32_USB_Host_Library/Core/Src/usbh_ctlreq.c ****         /* check if there is a data stage */
 773:Middlewares/ST/STM32_USB_Host_Library/Core/Src/usbh_ctlreq.c ****         if (phost->Control.setup.b.wLength.w != 0U)
 774:Middlewares/ST/STM32_USB_Host_Library/Core/Src/usbh_ctlreq.c ****         {
 775:Middlewares/ST/STM32_USB_Host_Library/Core/Src/usbh_ctlreq.c ****           if (direction == USB_D2H)
 776:Middlewares/ST/STM32_USB_Host_Library/Core/Src/usbh_ctlreq.c ****           {
 777:Middlewares/ST/STM32_USB_Host_Library/Core/Src/usbh_ctlreq.c ****             /* Data Direction is IN */
 778:Middlewares/ST/STM32_USB_Host_Library/Core/Src/usbh_ctlreq.c ****             phost->Control.state = CTRL_DATA_IN;
 779:Middlewares/ST/STM32_USB_Host_Library/Core/Src/usbh_ctlreq.c ****           }
 780:Middlewares/ST/STM32_USB_Host_Library/Core/Src/usbh_ctlreq.c ****           else
 781:Middlewares/ST/STM32_USB_Host_Library/Core/Src/usbh_ctlreq.c ****           {
 782:Middlewares/ST/STM32_USB_Host_Library/Core/Src/usbh_ctlreq.c ****             /* Data Direction is OUT */
 783:Middlewares/ST/STM32_USB_Host_Library/Core/Src/usbh_ctlreq.c ****             phost->Control.state = CTRL_DATA_OUT;
 784:Middlewares/ST/STM32_USB_Host_Library/Core/Src/usbh_ctlreq.c ****           }
 785:Middlewares/ST/STM32_USB_Host_Library/Core/Src/usbh_ctlreq.c ****         }
 786:Middlewares/ST/STM32_USB_Host_Library/Core/Src/usbh_ctlreq.c ****         /* No DATA stage */
 787:Middlewares/ST/STM32_USB_Host_Library/Core/Src/usbh_ctlreq.c ****         else
 788:Middlewares/ST/STM32_USB_Host_Library/Core/Src/usbh_ctlreq.c ****         {
 789:Middlewares/ST/STM32_USB_Host_Library/Core/Src/usbh_ctlreq.c ****           /* If there is No Data Transfer Stage */
 790:Middlewares/ST/STM32_USB_Host_Library/Core/Src/usbh_ctlreq.c ****           if (direction == USB_D2H)
 791:Middlewares/ST/STM32_USB_Host_Library/Core/Src/usbh_ctlreq.c ****           {
 792:Middlewares/ST/STM32_USB_Host_Library/Core/Src/usbh_ctlreq.c ****             /* Data Direction is IN */
 793:Middlewares/ST/STM32_USB_Host_Library/Core/Src/usbh_ctlreq.c ****             phost->Control.state = CTRL_STATUS_OUT;
 794:Middlewares/ST/STM32_USB_Host_Library/Core/Src/usbh_ctlreq.c ****           }
 795:Middlewares/ST/STM32_USB_Host_Library/Core/Src/usbh_ctlreq.c ****           else
 796:Middlewares/ST/STM32_USB_Host_Library/Core/Src/usbh_ctlreq.c ****           {
 797:Middlewares/ST/STM32_USB_Host_Library/Core/Src/usbh_ctlreq.c ****             /* Data Direction is OUT */
 798:Middlewares/ST/STM32_USB_Host_Library/Core/Src/usbh_ctlreq.c ****             phost->Control.state = CTRL_STATUS_IN;
 799:Middlewares/ST/STM32_USB_Host_Library/Core/Src/usbh_ctlreq.c ****           }
 800:Middlewares/ST/STM32_USB_Host_Library/Core/Src/usbh_ctlreq.c ****         }
 801:Middlewares/ST/STM32_USB_Host_Library/Core/Src/usbh_ctlreq.c **** 
 802:Middlewares/ST/STM32_USB_Host_Library/Core/Src/usbh_ctlreq.c **** #if (USBH_USE_OS == 1U)
 803:Middlewares/ST/STM32_USB_Host_Library/Core/Src/usbh_ctlreq.c ****         phost->os_msg = (uint32_t)USBH_CONTROL_EVENT;
 804:Middlewares/ST/STM32_USB_Host_Library/Core/Src/usbh_ctlreq.c **** #if (osCMSIS < 0x20000U)
 805:Middlewares/ST/STM32_USB_Host_Library/Core/Src/usbh_ctlreq.c ****         (void)osMessagePut(phost->os_event, phost->os_msg, 0U);
 806:Middlewares/ST/STM32_USB_Host_Library/Core/Src/usbh_ctlreq.c **** #else
 807:Middlewares/ST/STM32_USB_Host_Library/Core/Src/usbh_ctlreq.c ****         (void)osMessageQueuePut(phost->os_event, &phost->os_msg, 0U, 0U);
 808:Middlewares/ST/STM32_USB_Host_Library/Core/Src/usbh_ctlreq.c **** #endif
 809:Middlewares/ST/STM32_USB_Host_Library/Core/Src/usbh_ctlreq.c **** #endif
 810:Middlewares/ST/STM32_USB_Host_Library/Core/Src/usbh_ctlreq.c ****       }
ARM GAS  /tmp/ccXjZKHH.s 			page 25


 811:Middlewares/ST/STM32_USB_Host_Library/Core/Src/usbh_ctlreq.c ****       else
 812:Middlewares/ST/STM32_USB_Host_Library/Core/Src/usbh_ctlreq.c ****       {
 813:Middlewares/ST/STM32_USB_Host_Library/Core/Src/usbh_ctlreq.c ****         if ((URB_Status == USBH_URB_ERROR) || (URB_Status == USBH_URB_NOTREADY))
 814:Middlewares/ST/STM32_USB_Host_Library/Core/Src/usbh_ctlreq.c ****         {
 815:Middlewares/ST/STM32_USB_Host_Library/Core/Src/usbh_ctlreq.c ****           phost->Control.state = CTRL_ERROR;
 816:Middlewares/ST/STM32_USB_Host_Library/Core/Src/usbh_ctlreq.c **** 
 817:Middlewares/ST/STM32_USB_Host_Library/Core/Src/usbh_ctlreq.c **** #if (USBH_USE_OS == 1U)
 818:Middlewares/ST/STM32_USB_Host_Library/Core/Src/usbh_ctlreq.c ****           phost->os_msg = (uint32_t)USBH_CONTROL_EVENT;
 819:Middlewares/ST/STM32_USB_Host_Library/Core/Src/usbh_ctlreq.c **** #if (osCMSIS < 0x20000U)
 820:Middlewares/ST/STM32_USB_Host_Library/Core/Src/usbh_ctlreq.c ****           (void)osMessagePut(phost->os_event, phost->os_msg, 0U);
 821:Middlewares/ST/STM32_USB_Host_Library/Core/Src/usbh_ctlreq.c **** #else
 822:Middlewares/ST/STM32_USB_Host_Library/Core/Src/usbh_ctlreq.c ****           (void)osMessageQueuePut(phost->os_event, &phost->os_msg, 0U, 0U);
 823:Middlewares/ST/STM32_USB_Host_Library/Core/Src/usbh_ctlreq.c **** #endif
 824:Middlewares/ST/STM32_USB_Host_Library/Core/Src/usbh_ctlreq.c **** #endif
 825:Middlewares/ST/STM32_USB_Host_Library/Core/Src/usbh_ctlreq.c ****         }
 826:Middlewares/ST/STM32_USB_Host_Library/Core/Src/usbh_ctlreq.c ****       }
 827:Middlewares/ST/STM32_USB_Host_Library/Core/Src/usbh_ctlreq.c ****       break;
 828:Middlewares/ST/STM32_USB_Host_Library/Core/Src/usbh_ctlreq.c **** 
 829:Middlewares/ST/STM32_USB_Host_Library/Core/Src/usbh_ctlreq.c ****     case CTRL_DATA_IN:
 830:Middlewares/ST/STM32_USB_Host_Library/Core/Src/usbh_ctlreq.c ****       /* Issue an IN token */
 831:Middlewares/ST/STM32_USB_Host_Library/Core/Src/usbh_ctlreq.c ****       phost->Control.timer = (uint16_t)phost->Timer;
 832:Middlewares/ST/STM32_USB_Host_Library/Core/Src/usbh_ctlreq.c ****       (void)USBH_CtlReceiveData(phost, phost->Control.buff,
 833:Middlewares/ST/STM32_USB_Host_Library/Core/Src/usbh_ctlreq.c ****                                 phost->Control.length, phost->Control.pipe_in);
 834:Middlewares/ST/STM32_USB_Host_Library/Core/Src/usbh_ctlreq.c **** 
 835:Middlewares/ST/STM32_USB_Host_Library/Core/Src/usbh_ctlreq.c ****       phost->Control.state = CTRL_DATA_IN_WAIT;
 836:Middlewares/ST/STM32_USB_Host_Library/Core/Src/usbh_ctlreq.c ****       break;
 837:Middlewares/ST/STM32_USB_Host_Library/Core/Src/usbh_ctlreq.c **** 
 838:Middlewares/ST/STM32_USB_Host_Library/Core/Src/usbh_ctlreq.c ****     case CTRL_DATA_IN_WAIT:
 839:Middlewares/ST/STM32_USB_Host_Library/Core/Src/usbh_ctlreq.c **** 
 840:Middlewares/ST/STM32_USB_Host_Library/Core/Src/usbh_ctlreq.c ****       URB_Status = USBH_LL_GetURBState(phost, phost->Control.pipe_in);
 841:Middlewares/ST/STM32_USB_Host_Library/Core/Src/usbh_ctlreq.c **** 
 842:Middlewares/ST/STM32_USB_Host_Library/Core/Src/usbh_ctlreq.c ****       /* check is DATA packet transferred successfully */
 843:Middlewares/ST/STM32_USB_Host_Library/Core/Src/usbh_ctlreq.c ****       if (URB_Status == USBH_URB_DONE)
 844:Middlewares/ST/STM32_USB_Host_Library/Core/Src/usbh_ctlreq.c ****       {
 845:Middlewares/ST/STM32_USB_Host_Library/Core/Src/usbh_ctlreq.c ****         phost->Control.state = CTRL_STATUS_OUT;
 846:Middlewares/ST/STM32_USB_Host_Library/Core/Src/usbh_ctlreq.c **** 
 847:Middlewares/ST/STM32_USB_Host_Library/Core/Src/usbh_ctlreq.c **** #if (USBH_USE_OS == 1U)
 848:Middlewares/ST/STM32_USB_Host_Library/Core/Src/usbh_ctlreq.c ****         phost->os_msg = (uint32_t)USBH_CONTROL_EVENT;
 849:Middlewares/ST/STM32_USB_Host_Library/Core/Src/usbh_ctlreq.c **** #if (osCMSIS < 0x20000U)
 850:Middlewares/ST/STM32_USB_Host_Library/Core/Src/usbh_ctlreq.c ****         (void)osMessagePut(phost->os_event, phost->os_msg, 0U);
 851:Middlewares/ST/STM32_USB_Host_Library/Core/Src/usbh_ctlreq.c **** #else
 852:Middlewares/ST/STM32_USB_Host_Library/Core/Src/usbh_ctlreq.c ****         (void)osMessageQueuePut(phost->os_event, &phost->os_msg, 0U, 0U);
 853:Middlewares/ST/STM32_USB_Host_Library/Core/Src/usbh_ctlreq.c **** #endif
 854:Middlewares/ST/STM32_USB_Host_Library/Core/Src/usbh_ctlreq.c **** #endif
 855:Middlewares/ST/STM32_USB_Host_Library/Core/Src/usbh_ctlreq.c ****       }
 856:Middlewares/ST/STM32_USB_Host_Library/Core/Src/usbh_ctlreq.c **** 
 857:Middlewares/ST/STM32_USB_Host_Library/Core/Src/usbh_ctlreq.c ****       /* manage error cases*/
 858:Middlewares/ST/STM32_USB_Host_Library/Core/Src/usbh_ctlreq.c ****       if (URB_Status == USBH_URB_STALL)
 859:Middlewares/ST/STM32_USB_Host_Library/Core/Src/usbh_ctlreq.c ****       {
 860:Middlewares/ST/STM32_USB_Host_Library/Core/Src/usbh_ctlreq.c ****         /* In stall case, return to previous machine state*/
 861:Middlewares/ST/STM32_USB_Host_Library/Core/Src/usbh_ctlreq.c ****         status = USBH_NOT_SUPPORTED;
 862:Middlewares/ST/STM32_USB_Host_Library/Core/Src/usbh_ctlreq.c **** 
 863:Middlewares/ST/STM32_USB_Host_Library/Core/Src/usbh_ctlreq.c **** #if (USBH_USE_OS == 1U)
 864:Middlewares/ST/STM32_USB_Host_Library/Core/Src/usbh_ctlreq.c ****         phost->os_msg = (uint32_t)USBH_CONTROL_EVENT;
 865:Middlewares/ST/STM32_USB_Host_Library/Core/Src/usbh_ctlreq.c **** #if (osCMSIS < 0x20000U)
 866:Middlewares/ST/STM32_USB_Host_Library/Core/Src/usbh_ctlreq.c ****         (void)osMessagePut(phost->os_event, phost->os_msg, 0U);
 867:Middlewares/ST/STM32_USB_Host_Library/Core/Src/usbh_ctlreq.c **** #else
ARM GAS  /tmp/ccXjZKHH.s 			page 26


 868:Middlewares/ST/STM32_USB_Host_Library/Core/Src/usbh_ctlreq.c ****         (void)osMessageQueuePut(phost->os_event, &phost->os_msg, 0U, 0U);
 869:Middlewares/ST/STM32_USB_Host_Library/Core/Src/usbh_ctlreq.c **** #endif
 870:Middlewares/ST/STM32_USB_Host_Library/Core/Src/usbh_ctlreq.c **** #endif
 871:Middlewares/ST/STM32_USB_Host_Library/Core/Src/usbh_ctlreq.c ****       }
 872:Middlewares/ST/STM32_USB_Host_Library/Core/Src/usbh_ctlreq.c ****       else
 873:Middlewares/ST/STM32_USB_Host_Library/Core/Src/usbh_ctlreq.c ****       {
 874:Middlewares/ST/STM32_USB_Host_Library/Core/Src/usbh_ctlreq.c ****         if (URB_Status == USBH_URB_ERROR)
 875:Middlewares/ST/STM32_USB_Host_Library/Core/Src/usbh_ctlreq.c ****         {
 876:Middlewares/ST/STM32_USB_Host_Library/Core/Src/usbh_ctlreq.c ****           /* Device error */
 877:Middlewares/ST/STM32_USB_Host_Library/Core/Src/usbh_ctlreq.c ****           phost->Control.state = CTRL_ERROR;
 878:Middlewares/ST/STM32_USB_Host_Library/Core/Src/usbh_ctlreq.c **** 
 879:Middlewares/ST/STM32_USB_Host_Library/Core/Src/usbh_ctlreq.c **** #if (USBH_USE_OS == 1U)
 880:Middlewares/ST/STM32_USB_Host_Library/Core/Src/usbh_ctlreq.c ****           phost->os_msg = (uint32_t)USBH_CONTROL_EVENT;
 881:Middlewares/ST/STM32_USB_Host_Library/Core/Src/usbh_ctlreq.c **** #if (osCMSIS < 0x20000U)
 882:Middlewares/ST/STM32_USB_Host_Library/Core/Src/usbh_ctlreq.c ****           (void)osMessagePut(phost->os_event, phost->os_msg, 0U);
 883:Middlewares/ST/STM32_USB_Host_Library/Core/Src/usbh_ctlreq.c **** #else
 884:Middlewares/ST/STM32_USB_Host_Library/Core/Src/usbh_ctlreq.c ****           (void)osMessageQueuePut(phost->os_event, &phost->os_msg, 0U, 0U);
 885:Middlewares/ST/STM32_USB_Host_Library/Core/Src/usbh_ctlreq.c **** #endif
 886:Middlewares/ST/STM32_USB_Host_Library/Core/Src/usbh_ctlreq.c **** #endif
 887:Middlewares/ST/STM32_USB_Host_Library/Core/Src/usbh_ctlreq.c ****         }
 888:Middlewares/ST/STM32_USB_Host_Library/Core/Src/usbh_ctlreq.c ****       }
 889:Middlewares/ST/STM32_USB_Host_Library/Core/Src/usbh_ctlreq.c ****       break;
 890:Middlewares/ST/STM32_USB_Host_Library/Core/Src/usbh_ctlreq.c **** 
 891:Middlewares/ST/STM32_USB_Host_Library/Core/Src/usbh_ctlreq.c ****     case CTRL_DATA_OUT:
 892:Middlewares/ST/STM32_USB_Host_Library/Core/Src/usbh_ctlreq.c **** 
 893:Middlewares/ST/STM32_USB_Host_Library/Core/Src/usbh_ctlreq.c ****       (void)USBH_CtlSendData(phost, phost->Control.buff, phost->Control.length,
 894:Middlewares/ST/STM32_USB_Host_Library/Core/Src/usbh_ctlreq.c ****                              phost->Control.pipe_out, 1U);
 895:Middlewares/ST/STM32_USB_Host_Library/Core/Src/usbh_ctlreq.c **** 
 896:Middlewares/ST/STM32_USB_Host_Library/Core/Src/usbh_ctlreq.c ****       phost->Control.timer = (uint16_t)phost->Timer;
 897:Middlewares/ST/STM32_USB_Host_Library/Core/Src/usbh_ctlreq.c ****       phost->Control.state = CTRL_DATA_OUT_WAIT;
 898:Middlewares/ST/STM32_USB_Host_Library/Core/Src/usbh_ctlreq.c ****       break;
 899:Middlewares/ST/STM32_USB_Host_Library/Core/Src/usbh_ctlreq.c **** 
 900:Middlewares/ST/STM32_USB_Host_Library/Core/Src/usbh_ctlreq.c ****     case CTRL_DATA_OUT_WAIT:
 901:Middlewares/ST/STM32_USB_Host_Library/Core/Src/usbh_ctlreq.c **** 
 902:Middlewares/ST/STM32_USB_Host_Library/Core/Src/usbh_ctlreq.c ****       URB_Status = USBH_LL_GetURBState(phost, phost->Control.pipe_out);
 903:Middlewares/ST/STM32_USB_Host_Library/Core/Src/usbh_ctlreq.c **** 
 904:Middlewares/ST/STM32_USB_Host_Library/Core/Src/usbh_ctlreq.c ****       if (URB_Status == USBH_URB_DONE)
 905:Middlewares/ST/STM32_USB_Host_Library/Core/Src/usbh_ctlreq.c ****       {
 906:Middlewares/ST/STM32_USB_Host_Library/Core/Src/usbh_ctlreq.c ****         /* If the Setup Pkt is sent successful, then change the state */
 907:Middlewares/ST/STM32_USB_Host_Library/Core/Src/usbh_ctlreq.c ****         phost->Control.state = CTRL_STATUS_IN;
 908:Middlewares/ST/STM32_USB_Host_Library/Core/Src/usbh_ctlreq.c **** 
 909:Middlewares/ST/STM32_USB_Host_Library/Core/Src/usbh_ctlreq.c **** #if (USBH_USE_OS == 1U)
 910:Middlewares/ST/STM32_USB_Host_Library/Core/Src/usbh_ctlreq.c ****         phost->os_msg = (uint32_t)USBH_CONTROL_EVENT;
 911:Middlewares/ST/STM32_USB_Host_Library/Core/Src/usbh_ctlreq.c **** #if (osCMSIS < 0x20000U)
 912:Middlewares/ST/STM32_USB_Host_Library/Core/Src/usbh_ctlreq.c ****         (void)osMessagePut(phost->os_event, phost->os_msg, 0U);
 913:Middlewares/ST/STM32_USB_Host_Library/Core/Src/usbh_ctlreq.c **** #else
 914:Middlewares/ST/STM32_USB_Host_Library/Core/Src/usbh_ctlreq.c ****         (void)osMessageQueuePut(phost->os_event, &phost->os_msg, 0U, 0U);
 915:Middlewares/ST/STM32_USB_Host_Library/Core/Src/usbh_ctlreq.c **** #endif
 916:Middlewares/ST/STM32_USB_Host_Library/Core/Src/usbh_ctlreq.c **** #endif
 917:Middlewares/ST/STM32_USB_Host_Library/Core/Src/usbh_ctlreq.c ****       }
 918:Middlewares/ST/STM32_USB_Host_Library/Core/Src/usbh_ctlreq.c **** 
 919:Middlewares/ST/STM32_USB_Host_Library/Core/Src/usbh_ctlreq.c ****       /* handle error cases */
 920:Middlewares/ST/STM32_USB_Host_Library/Core/Src/usbh_ctlreq.c ****       else if (URB_Status == USBH_URB_STALL)
 921:Middlewares/ST/STM32_USB_Host_Library/Core/Src/usbh_ctlreq.c ****       {
 922:Middlewares/ST/STM32_USB_Host_Library/Core/Src/usbh_ctlreq.c ****         /* In stall case, return to previous machine state*/
 923:Middlewares/ST/STM32_USB_Host_Library/Core/Src/usbh_ctlreq.c ****         phost->Control.state = CTRL_STALLED;
 924:Middlewares/ST/STM32_USB_Host_Library/Core/Src/usbh_ctlreq.c ****         status = USBH_NOT_SUPPORTED;
ARM GAS  /tmp/ccXjZKHH.s 			page 27


 925:Middlewares/ST/STM32_USB_Host_Library/Core/Src/usbh_ctlreq.c **** 
 926:Middlewares/ST/STM32_USB_Host_Library/Core/Src/usbh_ctlreq.c **** #if (USBH_USE_OS == 1U)
 927:Middlewares/ST/STM32_USB_Host_Library/Core/Src/usbh_ctlreq.c ****         phost->os_msg = (uint32_t)USBH_CONTROL_EVENT;
 928:Middlewares/ST/STM32_USB_Host_Library/Core/Src/usbh_ctlreq.c **** #if (osCMSIS < 0x20000U)
 929:Middlewares/ST/STM32_USB_Host_Library/Core/Src/usbh_ctlreq.c ****         (void)osMessagePut(phost->os_event, phost->os_msg, 0U);
 930:Middlewares/ST/STM32_USB_Host_Library/Core/Src/usbh_ctlreq.c **** #else
 931:Middlewares/ST/STM32_USB_Host_Library/Core/Src/usbh_ctlreq.c ****         (void)osMessageQueuePut(phost->os_event, &phost->os_msg, 0U, 0U);
 932:Middlewares/ST/STM32_USB_Host_Library/Core/Src/usbh_ctlreq.c **** #endif
 933:Middlewares/ST/STM32_USB_Host_Library/Core/Src/usbh_ctlreq.c **** #endif
 934:Middlewares/ST/STM32_USB_Host_Library/Core/Src/usbh_ctlreq.c ****       }
 935:Middlewares/ST/STM32_USB_Host_Library/Core/Src/usbh_ctlreq.c ****       else if (URB_Status == USBH_URB_NOTREADY)
 936:Middlewares/ST/STM32_USB_Host_Library/Core/Src/usbh_ctlreq.c ****       {
 937:Middlewares/ST/STM32_USB_Host_Library/Core/Src/usbh_ctlreq.c ****         /* Nack received from device */
 938:Middlewares/ST/STM32_USB_Host_Library/Core/Src/usbh_ctlreq.c ****         phost->Control.state = CTRL_DATA_OUT;
 939:Middlewares/ST/STM32_USB_Host_Library/Core/Src/usbh_ctlreq.c **** 
 940:Middlewares/ST/STM32_USB_Host_Library/Core/Src/usbh_ctlreq.c **** #if (USBH_USE_OS == 1U)
 941:Middlewares/ST/STM32_USB_Host_Library/Core/Src/usbh_ctlreq.c ****         phost->os_msg = (uint32_t)USBH_CONTROL_EVENT;
 942:Middlewares/ST/STM32_USB_Host_Library/Core/Src/usbh_ctlreq.c **** #if (osCMSIS < 0x20000U)
 943:Middlewares/ST/STM32_USB_Host_Library/Core/Src/usbh_ctlreq.c ****         (void)osMessagePut(phost->os_event, phost->os_msg, 0U);
 944:Middlewares/ST/STM32_USB_Host_Library/Core/Src/usbh_ctlreq.c **** #else
 945:Middlewares/ST/STM32_USB_Host_Library/Core/Src/usbh_ctlreq.c ****         (void)osMessageQueuePut(phost->os_event, &phost->os_msg, 0U, 0U);
 946:Middlewares/ST/STM32_USB_Host_Library/Core/Src/usbh_ctlreq.c **** #endif
 947:Middlewares/ST/STM32_USB_Host_Library/Core/Src/usbh_ctlreq.c **** #endif
 948:Middlewares/ST/STM32_USB_Host_Library/Core/Src/usbh_ctlreq.c ****       }
 949:Middlewares/ST/STM32_USB_Host_Library/Core/Src/usbh_ctlreq.c ****       else
 950:Middlewares/ST/STM32_USB_Host_Library/Core/Src/usbh_ctlreq.c ****       {
 951:Middlewares/ST/STM32_USB_Host_Library/Core/Src/usbh_ctlreq.c ****         if (URB_Status == USBH_URB_ERROR)
 952:Middlewares/ST/STM32_USB_Host_Library/Core/Src/usbh_ctlreq.c ****         {
 953:Middlewares/ST/STM32_USB_Host_Library/Core/Src/usbh_ctlreq.c ****           /* device error */
 954:Middlewares/ST/STM32_USB_Host_Library/Core/Src/usbh_ctlreq.c ****           phost->Control.state = CTRL_ERROR;
 955:Middlewares/ST/STM32_USB_Host_Library/Core/Src/usbh_ctlreq.c ****           status = USBH_FAIL;
 956:Middlewares/ST/STM32_USB_Host_Library/Core/Src/usbh_ctlreq.c **** 
 957:Middlewares/ST/STM32_USB_Host_Library/Core/Src/usbh_ctlreq.c **** #if (USBH_USE_OS == 1U)
 958:Middlewares/ST/STM32_USB_Host_Library/Core/Src/usbh_ctlreq.c ****           phost->os_msg = (uint32_t)USBH_CONTROL_EVENT;
 959:Middlewares/ST/STM32_USB_Host_Library/Core/Src/usbh_ctlreq.c **** #if (osCMSIS < 0x20000U)
 960:Middlewares/ST/STM32_USB_Host_Library/Core/Src/usbh_ctlreq.c ****           (void)osMessagePut(phost->os_event, phost->os_msg, 0U);
 961:Middlewares/ST/STM32_USB_Host_Library/Core/Src/usbh_ctlreq.c **** #else
 962:Middlewares/ST/STM32_USB_Host_Library/Core/Src/usbh_ctlreq.c ****           (void)osMessageQueuePut(phost->os_event, &phost->os_msg, 0U, 0U);
 963:Middlewares/ST/STM32_USB_Host_Library/Core/Src/usbh_ctlreq.c **** #endif
 964:Middlewares/ST/STM32_USB_Host_Library/Core/Src/usbh_ctlreq.c **** #endif
 965:Middlewares/ST/STM32_USB_Host_Library/Core/Src/usbh_ctlreq.c ****         }
 966:Middlewares/ST/STM32_USB_Host_Library/Core/Src/usbh_ctlreq.c ****       }
 967:Middlewares/ST/STM32_USB_Host_Library/Core/Src/usbh_ctlreq.c ****       break;
 968:Middlewares/ST/STM32_USB_Host_Library/Core/Src/usbh_ctlreq.c **** 
 969:Middlewares/ST/STM32_USB_Host_Library/Core/Src/usbh_ctlreq.c ****     case CTRL_STATUS_IN:
 970:Middlewares/ST/STM32_USB_Host_Library/Core/Src/usbh_ctlreq.c ****       /* Send 0 bytes out packet */
 971:Middlewares/ST/STM32_USB_Host_Library/Core/Src/usbh_ctlreq.c ****       (void)USBH_CtlReceiveData(phost, NULL, 0U, phost->Control.pipe_in);
 972:Middlewares/ST/STM32_USB_Host_Library/Core/Src/usbh_ctlreq.c **** 
 973:Middlewares/ST/STM32_USB_Host_Library/Core/Src/usbh_ctlreq.c ****       phost->Control.timer = (uint16_t)phost->Timer;
 974:Middlewares/ST/STM32_USB_Host_Library/Core/Src/usbh_ctlreq.c ****       phost->Control.state = CTRL_STATUS_IN_WAIT;
 975:Middlewares/ST/STM32_USB_Host_Library/Core/Src/usbh_ctlreq.c **** 
 976:Middlewares/ST/STM32_USB_Host_Library/Core/Src/usbh_ctlreq.c ****       break;
 977:Middlewares/ST/STM32_USB_Host_Library/Core/Src/usbh_ctlreq.c **** 
 978:Middlewares/ST/STM32_USB_Host_Library/Core/Src/usbh_ctlreq.c ****     case CTRL_STATUS_IN_WAIT:
 979:Middlewares/ST/STM32_USB_Host_Library/Core/Src/usbh_ctlreq.c **** 
 980:Middlewares/ST/STM32_USB_Host_Library/Core/Src/usbh_ctlreq.c ****       URB_Status = USBH_LL_GetURBState(phost, phost->Control.pipe_in);
 981:Middlewares/ST/STM32_USB_Host_Library/Core/Src/usbh_ctlreq.c **** 
ARM GAS  /tmp/ccXjZKHH.s 			page 28


 982:Middlewares/ST/STM32_USB_Host_Library/Core/Src/usbh_ctlreq.c ****       if (URB_Status == USBH_URB_DONE)
 983:Middlewares/ST/STM32_USB_Host_Library/Core/Src/usbh_ctlreq.c ****       {
 984:Middlewares/ST/STM32_USB_Host_Library/Core/Src/usbh_ctlreq.c ****         /* Control transfers completed, Exit the State Machine */
 985:Middlewares/ST/STM32_USB_Host_Library/Core/Src/usbh_ctlreq.c ****         phost->Control.state = CTRL_COMPLETE;
 986:Middlewares/ST/STM32_USB_Host_Library/Core/Src/usbh_ctlreq.c ****         status = USBH_OK;
 987:Middlewares/ST/STM32_USB_Host_Library/Core/Src/usbh_ctlreq.c **** 
 988:Middlewares/ST/STM32_USB_Host_Library/Core/Src/usbh_ctlreq.c **** #if (USBH_USE_OS == 1U)
 989:Middlewares/ST/STM32_USB_Host_Library/Core/Src/usbh_ctlreq.c ****         phost->os_msg = (uint32_t)USBH_CONTROL_EVENT;
 990:Middlewares/ST/STM32_USB_Host_Library/Core/Src/usbh_ctlreq.c **** #if (osCMSIS < 0x20000U)
 991:Middlewares/ST/STM32_USB_Host_Library/Core/Src/usbh_ctlreq.c ****         (void)osMessagePut(phost->os_event, phost->os_msg, 0U);
 992:Middlewares/ST/STM32_USB_Host_Library/Core/Src/usbh_ctlreq.c **** #else
 993:Middlewares/ST/STM32_USB_Host_Library/Core/Src/usbh_ctlreq.c ****         (void)osMessageQueuePut(phost->os_event, &phost->os_msg, 0U, 0U);
 994:Middlewares/ST/STM32_USB_Host_Library/Core/Src/usbh_ctlreq.c **** #endif
 995:Middlewares/ST/STM32_USB_Host_Library/Core/Src/usbh_ctlreq.c **** #endif
 996:Middlewares/ST/STM32_USB_Host_Library/Core/Src/usbh_ctlreq.c ****       }
 997:Middlewares/ST/STM32_USB_Host_Library/Core/Src/usbh_ctlreq.c ****       else if (URB_Status == USBH_URB_ERROR)
 998:Middlewares/ST/STM32_USB_Host_Library/Core/Src/usbh_ctlreq.c ****       {
 999:Middlewares/ST/STM32_USB_Host_Library/Core/Src/usbh_ctlreq.c ****         phost->Control.state = CTRL_ERROR;
1000:Middlewares/ST/STM32_USB_Host_Library/Core/Src/usbh_ctlreq.c **** 
1001:Middlewares/ST/STM32_USB_Host_Library/Core/Src/usbh_ctlreq.c **** #if (USBH_USE_OS == 1U)
1002:Middlewares/ST/STM32_USB_Host_Library/Core/Src/usbh_ctlreq.c ****         phost->os_msg = (uint32_t)USBH_CONTROL_EVENT;
1003:Middlewares/ST/STM32_USB_Host_Library/Core/Src/usbh_ctlreq.c **** #if (osCMSIS < 0x20000U)
1004:Middlewares/ST/STM32_USB_Host_Library/Core/Src/usbh_ctlreq.c ****         (void)osMessagePut(phost->os_event, phost->os_msg, 0U);
1005:Middlewares/ST/STM32_USB_Host_Library/Core/Src/usbh_ctlreq.c **** #else
1006:Middlewares/ST/STM32_USB_Host_Library/Core/Src/usbh_ctlreq.c ****         (void)osMessageQueuePut(phost->os_event, &phost->os_msg, 0U, 0U);
1007:Middlewares/ST/STM32_USB_Host_Library/Core/Src/usbh_ctlreq.c **** #endif
1008:Middlewares/ST/STM32_USB_Host_Library/Core/Src/usbh_ctlreq.c **** #endif
1009:Middlewares/ST/STM32_USB_Host_Library/Core/Src/usbh_ctlreq.c ****       }
1010:Middlewares/ST/STM32_USB_Host_Library/Core/Src/usbh_ctlreq.c ****       else
1011:Middlewares/ST/STM32_USB_Host_Library/Core/Src/usbh_ctlreq.c ****       {
1012:Middlewares/ST/STM32_USB_Host_Library/Core/Src/usbh_ctlreq.c ****         if (URB_Status == USBH_URB_STALL)
1013:Middlewares/ST/STM32_USB_Host_Library/Core/Src/usbh_ctlreq.c ****         {
1014:Middlewares/ST/STM32_USB_Host_Library/Core/Src/usbh_ctlreq.c ****           /* Control transfers completed, Exit the State Machine */
1015:Middlewares/ST/STM32_USB_Host_Library/Core/Src/usbh_ctlreq.c ****           status = USBH_NOT_SUPPORTED;
1016:Middlewares/ST/STM32_USB_Host_Library/Core/Src/usbh_ctlreq.c **** 
1017:Middlewares/ST/STM32_USB_Host_Library/Core/Src/usbh_ctlreq.c **** #if (USBH_USE_OS == 1U)
1018:Middlewares/ST/STM32_USB_Host_Library/Core/Src/usbh_ctlreq.c ****           phost->os_msg = (uint32_t)USBH_CONTROL_EVENT;
1019:Middlewares/ST/STM32_USB_Host_Library/Core/Src/usbh_ctlreq.c **** #if (osCMSIS < 0x20000U)
1020:Middlewares/ST/STM32_USB_Host_Library/Core/Src/usbh_ctlreq.c ****           (void)osMessagePut(phost->os_event, phost->os_msg, 0U);
1021:Middlewares/ST/STM32_USB_Host_Library/Core/Src/usbh_ctlreq.c **** #else
1022:Middlewares/ST/STM32_USB_Host_Library/Core/Src/usbh_ctlreq.c ****           (void)osMessageQueuePut(phost->os_event, &phost->os_msg, 0U, 0U);
1023:Middlewares/ST/STM32_USB_Host_Library/Core/Src/usbh_ctlreq.c **** #endif
1024:Middlewares/ST/STM32_USB_Host_Library/Core/Src/usbh_ctlreq.c **** #endif
1025:Middlewares/ST/STM32_USB_Host_Library/Core/Src/usbh_ctlreq.c ****         }
1026:Middlewares/ST/STM32_USB_Host_Library/Core/Src/usbh_ctlreq.c ****       }
1027:Middlewares/ST/STM32_USB_Host_Library/Core/Src/usbh_ctlreq.c ****       break;
1028:Middlewares/ST/STM32_USB_Host_Library/Core/Src/usbh_ctlreq.c **** 
1029:Middlewares/ST/STM32_USB_Host_Library/Core/Src/usbh_ctlreq.c ****     case CTRL_STATUS_OUT:
1030:Middlewares/ST/STM32_USB_Host_Library/Core/Src/usbh_ctlreq.c ****       (void)USBH_CtlSendData(phost, NULL, 0U, phost->Control.pipe_out, 1U);
1031:Middlewares/ST/STM32_USB_Host_Library/Core/Src/usbh_ctlreq.c **** 
1032:Middlewares/ST/STM32_USB_Host_Library/Core/Src/usbh_ctlreq.c ****       phost->Control.timer = (uint16_t)phost->Timer;
1033:Middlewares/ST/STM32_USB_Host_Library/Core/Src/usbh_ctlreq.c ****       phost->Control.state = CTRL_STATUS_OUT_WAIT;
1034:Middlewares/ST/STM32_USB_Host_Library/Core/Src/usbh_ctlreq.c ****       break;
1035:Middlewares/ST/STM32_USB_Host_Library/Core/Src/usbh_ctlreq.c **** 
1036:Middlewares/ST/STM32_USB_Host_Library/Core/Src/usbh_ctlreq.c ****     case CTRL_STATUS_OUT_WAIT:
1037:Middlewares/ST/STM32_USB_Host_Library/Core/Src/usbh_ctlreq.c ****       URB_Status = USBH_LL_GetURBState(phost, phost->Control.pipe_out);
1038:Middlewares/ST/STM32_USB_Host_Library/Core/Src/usbh_ctlreq.c ****       if (URB_Status == USBH_URB_DONE)
ARM GAS  /tmp/ccXjZKHH.s 			page 29


1039:Middlewares/ST/STM32_USB_Host_Library/Core/Src/usbh_ctlreq.c ****       {
1040:Middlewares/ST/STM32_USB_Host_Library/Core/Src/usbh_ctlreq.c ****         status = USBH_OK;
1041:Middlewares/ST/STM32_USB_Host_Library/Core/Src/usbh_ctlreq.c ****         phost->Control.state = CTRL_COMPLETE;
1042:Middlewares/ST/STM32_USB_Host_Library/Core/Src/usbh_ctlreq.c **** 
1043:Middlewares/ST/STM32_USB_Host_Library/Core/Src/usbh_ctlreq.c **** #if (USBH_USE_OS == 1U)
1044:Middlewares/ST/STM32_USB_Host_Library/Core/Src/usbh_ctlreq.c ****         phost->os_msg = (uint32_t)USBH_CONTROL_EVENT;
1045:Middlewares/ST/STM32_USB_Host_Library/Core/Src/usbh_ctlreq.c **** #if (osCMSIS < 0x20000U)
1046:Middlewares/ST/STM32_USB_Host_Library/Core/Src/usbh_ctlreq.c ****         (void)osMessagePut(phost->os_event, phost->os_msg, 0U);
1047:Middlewares/ST/STM32_USB_Host_Library/Core/Src/usbh_ctlreq.c **** #else
1048:Middlewares/ST/STM32_USB_Host_Library/Core/Src/usbh_ctlreq.c ****         (void)osMessageQueuePut(phost->os_event, &phost->os_msg, 0U, 0U);
1049:Middlewares/ST/STM32_USB_Host_Library/Core/Src/usbh_ctlreq.c **** #endif
1050:Middlewares/ST/STM32_USB_Host_Library/Core/Src/usbh_ctlreq.c **** #endif
1051:Middlewares/ST/STM32_USB_Host_Library/Core/Src/usbh_ctlreq.c ****       }
1052:Middlewares/ST/STM32_USB_Host_Library/Core/Src/usbh_ctlreq.c ****       else if (URB_Status == USBH_URB_NOTREADY)
1053:Middlewares/ST/STM32_USB_Host_Library/Core/Src/usbh_ctlreq.c ****       {
1054:Middlewares/ST/STM32_USB_Host_Library/Core/Src/usbh_ctlreq.c ****         phost->Control.state = CTRL_STATUS_OUT;
1055:Middlewares/ST/STM32_USB_Host_Library/Core/Src/usbh_ctlreq.c **** 
1056:Middlewares/ST/STM32_USB_Host_Library/Core/Src/usbh_ctlreq.c **** #if (USBH_USE_OS == 1U)
1057:Middlewares/ST/STM32_USB_Host_Library/Core/Src/usbh_ctlreq.c ****         phost->os_msg = (uint32_t)USBH_CONTROL_EVENT;
1058:Middlewares/ST/STM32_USB_Host_Library/Core/Src/usbh_ctlreq.c **** #if (osCMSIS < 0x20000U)
1059:Middlewares/ST/STM32_USB_Host_Library/Core/Src/usbh_ctlreq.c ****         (void)osMessagePut(phost->os_event, phost->os_msg, 0U);
1060:Middlewares/ST/STM32_USB_Host_Library/Core/Src/usbh_ctlreq.c **** #else
1061:Middlewares/ST/STM32_USB_Host_Library/Core/Src/usbh_ctlreq.c ****         (void)osMessageQueuePut(phost->os_event, &phost->os_msg, 0U, 0U);
1062:Middlewares/ST/STM32_USB_Host_Library/Core/Src/usbh_ctlreq.c **** #endif
1063:Middlewares/ST/STM32_USB_Host_Library/Core/Src/usbh_ctlreq.c **** #endif
1064:Middlewares/ST/STM32_USB_Host_Library/Core/Src/usbh_ctlreq.c ****       }
1065:Middlewares/ST/STM32_USB_Host_Library/Core/Src/usbh_ctlreq.c ****       else
1066:Middlewares/ST/STM32_USB_Host_Library/Core/Src/usbh_ctlreq.c ****       {
1067:Middlewares/ST/STM32_USB_Host_Library/Core/Src/usbh_ctlreq.c ****         if (URB_Status == USBH_URB_ERROR)
1068:Middlewares/ST/STM32_USB_Host_Library/Core/Src/usbh_ctlreq.c ****         {
1069:Middlewares/ST/STM32_USB_Host_Library/Core/Src/usbh_ctlreq.c ****           phost->Control.state = CTRL_ERROR;
1070:Middlewares/ST/STM32_USB_Host_Library/Core/Src/usbh_ctlreq.c **** 
1071:Middlewares/ST/STM32_USB_Host_Library/Core/Src/usbh_ctlreq.c **** #if (USBH_USE_OS == 1U)
1072:Middlewares/ST/STM32_USB_Host_Library/Core/Src/usbh_ctlreq.c ****           phost->os_msg = (uint32_t)USBH_CONTROL_EVENT;
1073:Middlewares/ST/STM32_USB_Host_Library/Core/Src/usbh_ctlreq.c **** #if (osCMSIS < 0x20000U)
1074:Middlewares/ST/STM32_USB_Host_Library/Core/Src/usbh_ctlreq.c ****           (void)osMessagePut(phost->os_event, phost->os_msg, 0U);
1075:Middlewares/ST/STM32_USB_Host_Library/Core/Src/usbh_ctlreq.c **** #else
1076:Middlewares/ST/STM32_USB_Host_Library/Core/Src/usbh_ctlreq.c ****           (void)osMessageQueuePut(phost->os_event, &phost->os_msg, 0U, 0U);
1077:Middlewares/ST/STM32_USB_Host_Library/Core/Src/usbh_ctlreq.c **** #endif
1078:Middlewares/ST/STM32_USB_Host_Library/Core/Src/usbh_ctlreq.c **** #endif
1079:Middlewares/ST/STM32_USB_Host_Library/Core/Src/usbh_ctlreq.c ****         }
1080:Middlewares/ST/STM32_USB_Host_Library/Core/Src/usbh_ctlreq.c ****       }
1081:Middlewares/ST/STM32_USB_Host_Library/Core/Src/usbh_ctlreq.c ****       break;
1082:Middlewares/ST/STM32_USB_Host_Library/Core/Src/usbh_ctlreq.c **** 
1083:Middlewares/ST/STM32_USB_Host_Library/Core/Src/usbh_ctlreq.c ****     case CTRL_ERROR:
1084:Middlewares/ST/STM32_USB_Host_Library/Core/Src/usbh_ctlreq.c ****       /*
1085:Middlewares/ST/STM32_USB_Host_Library/Core/Src/usbh_ctlreq.c ****       After a halt condition is encountered or an error is detected by the
1086:Middlewares/ST/STM32_USB_Host_Library/Core/Src/usbh_ctlreq.c ****       host, a control endpoint is allowed to recover by accepting the next Setup
1087:Middlewares/ST/STM32_USB_Host_Library/Core/Src/usbh_ctlreq.c ****       PID; i.e., recovery actions via some other pipe are not required for control
1088:Middlewares/ST/STM32_USB_Host_Library/Core/Src/usbh_ctlreq.c ****       endpoints. For the Default Control Pipe, a device reset will ultimately be
1089:Middlewares/ST/STM32_USB_Host_Library/Core/Src/usbh_ctlreq.c ****       required to clear the halt or error condition if the next Setup PID is not
1090:Middlewares/ST/STM32_USB_Host_Library/Core/Src/usbh_ctlreq.c ****       accepted.
1091:Middlewares/ST/STM32_USB_Host_Library/Core/Src/usbh_ctlreq.c ****       */
1092:Middlewares/ST/STM32_USB_Host_Library/Core/Src/usbh_ctlreq.c ****       if (++phost->Control.errorcount <= USBH_MAX_ERROR_COUNT)
1093:Middlewares/ST/STM32_USB_Host_Library/Core/Src/usbh_ctlreq.c ****       {
1094:Middlewares/ST/STM32_USB_Host_Library/Core/Src/usbh_ctlreq.c ****         /* Do the transmission again, starting from SETUP Packet */
1095:Middlewares/ST/STM32_USB_Host_Library/Core/Src/usbh_ctlreq.c ****         phost->Control.state = CTRL_SETUP;
ARM GAS  /tmp/ccXjZKHH.s 			page 30


1096:Middlewares/ST/STM32_USB_Host_Library/Core/Src/usbh_ctlreq.c ****         phost->RequestState = CMD_SEND;
1097:Middlewares/ST/STM32_USB_Host_Library/Core/Src/usbh_ctlreq.c ****       }
1098:Middlewares/ST/STM32_USB_Host_Library/Core/Src/usbh_ctlreq.c ****       else
1099:Middlewares/ST/STM32_USB_Host_Library/Core/Src/usbh_ctlreq.c ****       {
1100:Middlewares/ST/STM32_USB_Host_Library/Core/Src/usbh_ctlreq.c ****         phost->pUser(phost, HOST_USER_UNRECOVERED_ERROR);
1101:Middlewares/ST/STM32_USB_Host_Library/Core/Src/usbh_ctlreq.c ****         phost->Control.errorcount = 0U;
1102:Middlewares/ST/STM32_USB_Host_Library/Core/Src/usbh_ctlreq.c ****         USBH_ErrLog("Control error: Device not responding");
1103:Middlewares/ST/STM32_USB_Host_Library/Core/Src/usbh_ctlreq.c **** 
1104:Middlewares/ST/STM32_USB_Host_Library/Core/Src/usbh_ctlreq.c ****         /* Free control pipes */
1105:Middlewares/ST/STM32_USB_Host_Library/Core/Src/usbh_ctlreq.c ****         (void)USBH_FreePipe(phost, phost->Control.pipe_out);
1106:Middlewares/ST/STM32_USB_Host_Library/Core/Src/usbh_ctlreq.c ****         (void)USBH_FreePipe(phost, phost->Control.pipe_in);
1107:Middlewares/ST/STM32_USB_Host_Library/Core/Src/usbh_ctlreq.c **** 
1108:Middlewares/ST/STM32_USB_Host_Library/Core/Src/usbh_ctlreq.c ****         phost->gState = HOST_IDLE;
1109:Middlewares/ST/STM32_USB_Host_Library/Core/Src/usbh_ctlreq.c ****         status = USBH_FAIL;
1110:Middlewares/ST/STM32_USB_Host_Library/Core/Src/usbh_ctlreq.c ****       }
1111:Middlewares/ST/STM32_USB_Host_Library/Core/Src/usbh_ctlreq.c ****       break;
1112:Middlewares/ST/STM32_USB_Host_Library/Core/Src/usbh_ctlreq.c **** 
1113:Middlewares/ST/STM32_USB_Host_Library/Core/Src/usbh_ctlreq.c ****     default:
1114:Middlewares/ST/STM32_USB_Host_Library/Core/Src/usbh_ctlreq.c ****       break;
1115:Middlewares/ST/STM32_USB_Host_Library/Core/Src/usbh_ctlreq.c ****   }
1116:Middlewares/ST/STM32_USB_Host_Library/Core/Src/usbh_ctlreq.c **** 
1117:Middlewares/ST/STM32_USB_Host_Library/Core/Src/usbh_ctlreq.c ****   return status;
 539              		.loc 1 1117 3 view .LVU172
1118:Middlewares/ST/STM32_USB_Host_Library/Core/Src/usbh_ctlreq.c **** }
 540              		.loc 1 1118 1 is_stmt 0 view .LVU173
 541 002e 2846     		mov	r0, r5
 542 0030 03B0     		add	sp, sp, #12
 543              	.LCFI9:
 544              		.cfi_remember_state
 545              		.cfi_def_cfa_offset 12
 546              		@ sp needed
 547 0032 30BD     		pop	{r4, r5, pc}
 548              	.LVL30:
 549              	.L46:
 550              	.LCFI10:
 551              		.cfi_restore_state
 766:Middlewares/ST/STM32_USB_Host_Library/Core/Src/usbh_ctlreq.c ****       /* case SETUP packet sent successfully */
 552              		.loc 1 766 7 is_stmt 1 view .LVU174
 766:Middlewares/ST/STM32_USB_Host_Library/Core/Src/usbh_ctlreq.c ****       /* case SETUP packet sent successfully */
 553              		.loc 1 766 20 is_stmt 0 view .LVU175
 554 0034 4179     		ldrb	r1, [r0, #5]	@ zero_extendqisi2
 555 0036 FFF7FEFF 		bl	USBH_LL_GetURBState
 556              	.LVL31:
 766:Middlewares/ST/STM32_USB_Host_Library/Core/Src/usbh_ctlreq.c ****       /* case SETUP packet sent successfully */
 557              		.loc 1 766 20 view .LVU176
 558 003a 0546     		mov	r5, r0
 559              	.LVL32:
 768:Middlewares/ST/STM32_USB_Host_Library/Core/Src/usbh_ctlreq.c ****       {
 560              		.loc 1 768 7 is_stmt 1 view .LVU177
 768:Middlewares/ST/STM32_USB_Host_Library/Core/Src/usbh_ctlreq.c ****       {
 561              		.loc 1 768 10 is_stmt 0 view .LVU178
 562 003c 0128     		cmp	r0, #1
 563 003e 05D0     		beq	.L70
 813:Middlewares/ST/STM32_USB_Host_Library/Core/Src/usbh_ctlreq.c ****         {
 564              		.loc 1 813 9 is_stmt 1 view .LVU179
 813:Middlewares/ST/STM32_USB_Host_Library/Core/Src/usbh_ctlreq.c ****         {
 565              		.loc 1 813 12 is_stmt 0 view .LVU180
ARM GAS  /tmp/ccXjZKHH.s 			page 31


 566 0040 0428     		cmp	r0, #4
 567 0042 18D0     		beq	.L52
 813:Middlewares/ST/STM32_USB_Host_Library/Core/Src/usbh_ctlreq.c ****         {
 568              		.loc 1 813 44 discriminator 1 view .LVU181
 569 0044 0228     		cmp	r0, #2
 570 0046 16D0     		beq	.L52
 751:Middlewares/ST/STM32_USB_Host_Library/Core/Src/usbh_ctlreq.c ****   USBH_URBStateTypeDef URB_Status = USBH_URB_IDLE;
 571              		.loc 1 751 22 view .LVU182
 572 0048 0125     		movs	r5, #1
 573 004a F0E7     		b	.L35
 574              	.L70:
 770:Middlewares/ST/STM32_USB_Host_Library/Core/Src/usbh_ctlreq.c **** 
 575              		.loc 1 770 9 is_stmt 1 view .LVU183
 770:Middlewares/ST/STM32_USB_Host_Library/Core/Src/usbh_ctlreq.c **** 
 576              		.loc 1 770 44 is_stmt 0 view .LVU184
 577 004c 237C     		ldrb	r3, [r4, #16]	@ zero_extendqisi2
 578              	.LVL33:
 773:Middlewares/ST/STM32_USB_Host_Library/Core/Src/usbh_ctlreq.c ****         {
 579              		.loc 1 773 9 is_stmt 1 view .LVU185
 773:Middlewares/ST/STM32_USB_Host_Library/Core/Src/usbh_ctlreq.c ****         {
 580              		.loc 1 773 43 is_stmt 0 view .LVU186
 581 004e E28A     		ldrh	r2, [r4, #22]
 773:Middlewares/ST/STM32_USB_Host_Library/Core/Src/usbh_ctlreq.c ****         {
 582              		.loc 1 773 12 view .LVU187
 583 0050 42B1     		cbz	r2, .L49
 775:Middlewares/ST/STM32_USB_Host_Library/Core/Src/usbh_ctlreq.c ****           {
 584              		.loc 1 775 11 is_stmt 1 view .LVU188
 775:Middlewares/ST/STM32_USB_Host_Library/Core/Src/usbh_ctlreq.c ****           {
 585              		.loc 1 775 14 is_stmt 0 view .LVU189
 586 0052 13F0800F 		tst	r3, #128
 587 0056 02D1     		bne	.L71
 783:Middlewares/ST/STM32_USB_Host_Library/Core/Src/usbh_ctlreq.c ****           }
 588              		.loc 1 783 13 is_stmt 1 view .LVU190
 783:Middlewares/ST/STM32_USB_Host_Library/Core/Src/usbh_ctlreq.c ****           }
 589              		.loc 1 783 34 is_stmt 0 view .LVU191
 590 0058 0523     		movs	r3, #5
 591              	.LVL34:
 783:Middlewares/ST/STM32_USB_Host_Library/Core/Src/usbh_ctlreq.c ****           }
 592              		.loc 1 783 34 view .LVU192
 593 005a 2376     		strb	r3, [r4, #24]
 594 005c E7E7     		b	.L35
 595              	.LVL35:
 596              	.L71:
 778:Middlewares/ST/STM32_USB_Host_Library/Core/Src/usbh_ctlreq.c ****           }
 597              		.loc 1 778 13 is_stmt 1 view .LVU193
 778:Middlewares/ST/STM32_USB_Host_Library/Core/Src/usbh_ctlreq.c ****           }
 598              		.loc 1 778 34 is_stmt 0 view .LVU194
 599 005e 0323     		movs	r3, #3
 600              	.LVL36:
 778:Middlewares/ST/STM32_USB_Host_Library/Core/Src/usbh_ctlreq.c ****           }
 601              		.loc 1 778 34 view .LVU195
 602 0060 2376     		strb	r3, [r4, #24]
 603 0062 E4E7     		b	.L35
 604              	.LVL37:
 605              	.L49:
 790:Middlewares/ST/STM32_USB_Host_Library/Core/Src/usbh_ctlreq.c ****           {
 606              		.loc 1 790 11 is_stmt 1 view .LVU196
ARM GAS  /tmp/ccXjZKHH.s 			page 32


 790:Middlewares/ST/STM32_USB_Host_Library/Core/Src/usbh_ctlreq.c ****           {
 607              		.loc 1 790 14 is_stmt 0 view .LVU197
 608 0064 13F0800F 		tst	r3, #128
 609 0068 02D1     		bne	.L72
 798:Middlewares/ST/STM32_USB_Host_Library/Core/Src/usbh_ctlreq.c ****           }
 610              		.loc 1 798 13 is_stmt 1 view .LVU198
 798:Middlewares/ST/STM32_USB_Host_Library/Core/Src/usbh_ctlreq.c ****           }
 611              		.loc 1 798 34 is_stmt 0 view .LVU199
 612 006a 0723     		movs	r3, #7
 613              	.LVL38:
 798:Middlewares/ST/STM32_USB_Host_Library/Core/Src/usbh_ctlreq.c ****           }
 614              		.loc 1 798 34 view .LVU200
 615 006c 2376     		strb	r3, [r4, #24]
 616 006e DEE7     		b	.L35
 617              	.LVL39:
 618              	.L72:
 793:Middlewares/ST/STM32_USB_Host_Library/Core/Src/usbh_ctlreq.c ****           }
 619              		.loc 1 793 13 is_stmt 1 view .LVU201
 793:Middlewares/ST/STM32_USB_Host_Library/Core/Src/usbh_ctlreq.c ****           }
 620              		.loc 1 793 34 is_stmt 0 view .LVU202
 621 0070 0923     		movs	r3, #9
 622              	.LVL40:
 793:Middlewares/ST/STM32_USB_Host_Library/Core/Src/usbh_ctlreq.c ****           }
 623              		.loc 1 793 34 view .LVU203
 624 0072 2376     		strb	r3, [r4, #24]
 625 0074 DBE7     		b	.L35
 626              	.LVL41:
 627              	.L52:
 815:Middlewares/ST/STM32_USB_Host_Library/Core/Src/usbh_ctlreq.c **** 
 628              		.loc 1 815 11 is_stmt 1 view .LVU204
 815:Middlewares/ST/STM32_USB_Host_Library/Core/Src/usbh_ctlreq.c **** 
 629              		.loc 1 815 32 is_stmt 0 view .LVU205
 630 0076 0B23     		movs	r3, #11
 631 0078 2376     		strb	r3, [r4, #24]
 751:Middlewares/ST/STM32_USB_Host_Library/Core/Src/usbh_ctlreq.c ****   USBH_URBStateTypeDef URB_Status = USBH_URB_IDLE;
 632              		.loc 1 751 22 view .LVU206
 633 007a 0125     		movs	r5, #1
 634 007c D7E7     		b	.L35
 635              	.LVL42:
 636              	.L45:
 831:Middlewares/ST/STM32_USB_Host_Library/Core/Src/usbh_ctlreq.c ****       (void)USBH_CtlReceiveData(phost, phost->Control.buff,
 637              		.loc 1 831 7 is_stmt 1 view .LVU207
 831:Middlewares/ST/STM32_USB_Host_Library/Core/Src/usbh_ctlreq.c ****       (void)USBH_CtlReceiveData(phost, phost->Control.buff,
 638              		.loc 1 831 45 is_stmt 0 view .LVU208
 639 007e D0F8C433 		ldr	r3, [r0, #964]
 831:Middlewares/ST/STM32_USB_Host_Library/Core/Src/usbh_ctlreq.c ****       (void)USBH_CtlReceiveData(phost, phost->Control.buff,
 640              		.loc 1 831 28 view .LVU209
 641 0082 C381     		strh	r3, [r0, #14]	@ movhi
 832:Middlewares/ST/STM32_USB_Host_Library/Core/Src/usbh_ctlreq.c ****                                 phost->Control.length, phost->Control.pipe_in);
 642              		.loc 1 832 7 is_stmt 1 view .LVU210
 832:Middlewares/ST/STM32_USB_Host_Library/Core/Src/usbh_ctlreq.c ****                                 phost->Control.length, phost->Control.pipe_in);
 643              		.loc 1 832 13 is_stmt 0 view .LVU211
 644 0084 0379     		ldrb	r3, [r0, #4]	@ zero_extendqisi2
 645 0086 8289     		ldrh	r2, [r0, #12]
 646 0088 8168     		ldr	r1, [r0, #8]
 647 008a FFF7FEFF 		bl	USBH_CtlReceiveData
 648              	.LVL43:
ARM GAS  /tmp/ccXjZKHH.s 			page 33


 835:Middlewares/ST/STM32_USB_Host_Library/Core/Src/usbh_ctlreq.c ****       break;
 649              		.loc 1 835 7 is_stmt 1 view .LVU212
 835:Middlewares/ST/STM32_USB_Host_Library/Core/Src/usbh_ctlreq.c ****       break;
 650              		.loc 1 835 28 is_stmt 0 view .LVU213
 651 008e 0423     		movs	r3, #4
 652 0090 2376     		strb	r3, [r4, #24]
 836:Middlewares/ST/STM32_USB_Host_Library/Core/Src/usbh_ctlreq.c **** 
 653              		.loc 1 836 7 is_stmt 1 view .LVU214
 751:Middlewares/ST/STM32_USB_Host_Library/Core/Src/usbh_ctlreq.c ****   USBH_URBStateTypeDef URB_Status = USBH_URB_IDLE;
 654              		.loc 1 751 22 is_stmt 0 view .LVU215
 655 0092 0125     		movs	r5, #1
 836:Middlewares/ST/STM32_USB_Host_Library/Core/Src/usbh_ctlreq.c **** 
 656              		.loc 1 836 7 view .LVU216
 657 0094 CBE7     		b	.L35
 658              	.LVL44:
 659              	.L44:
 840:Middlewares/ST/STM32_USB_Host_Library/Core/Src/usbh_ctlreq.c **** 
 660              		.loc 1 840 7 is_stmt 1 view .LVU217
 840:Middlewares/ST/STM32_USB_Host_Library/Core/Src/usbh_ctlreq.c **** 
 661              		.loc 1 840 20 is_stmt 0 view .LVU218
 662 0096 0179     		ldrb	r1, [r0, #4]	@ zero_extendqisi2
 663 0098 FFF7FEFF 		bl	USBH_LL_GetURBState
 664              	.LVL45:
 843:Middlewares/ST/STM32_USB_Host_Library/Core/Src/usbh_ctlreq.c ****       {
 665              		.loc 1 843 7 is_stmt 1 view .LVU219
 843:Middlewares/ST/STM32_USB_Host_Library/Core/Src/usbh_ctlreq.c ****       {
 666              		.loc 1 843 10 is_stmt 0 view .LVU220
 667 009c 0128     		cmp	r0, #1
 668 009e 06D0     		beq	.L73
 669              	.L53:
 858:Middlewares/ST/STM32_USB_Host_Library/Core/Src/usbh_ctlreq.c ****       {
 670              		.loc 1 858 7 is_stmt 1 view .LVU221
 858:Middlewares/ST/STM32_USB_Host_Library/Core/Src/usbh_ctlreq.c ****       {
 671              		.loc 1 858 10 is_stmt 0 view .LVU222
 672 00a0 0528     		cmp	r0, #5
 673 00a2 00F09580 		beq	.L64
 874:Middlewares/ST/STM32_USB_Host_Library/Core/Src/usbh_ctlreq.c ****         {
 674              		.loc 1 874 9 is_stmt 1 view .LVU223
 874:Middlewares/ST/STM32_USB_Host_Library/Core/Src/usbh_ctlreq.c ****         {
 675              		.loc 1 874 12 is_stmt 0 view .LVU224
 676 00a6 0428     		cmp	r0, #4
 677 00a8 04D0     		beq	.L74
 751:Middlewares/ST/STM32_USB_Host_Library/Core/Src/usbh_ctlreq.c ****   USBH_URBStateTypeDef URB_Status = USBH_URB_IDLE;
 678              		.loc 1 751 22 view .LVU225
 679 00aa 0125     		movs	r5, #1
 680 00ac BFE7     		b	.L35
 681              	.L73:
 845:Middlewares/ST/STM32_USB_Host_Library/Core/Src/usbh_ctlreq.c **** 
 682              		.loc 1 845 9 is_stmt 1 view .LVU226
 845:Middlewares/ST/STM32_USB_Host_Library/Core/Src/usbh_ctlreq.c **** 
 683              		.loc 1 845 30 is_stmt 0 view .LVU227
 684 00ae 0923     		movs	r3, #9
 685 00b0 2376     		strb	r3, [r4, #24]
 686 00b2 F5E7     		b	.L53
 687              	.L74:
 877:Middlewares/ST/STM32_USB_Host_Library/Core/Src/usbh_ctlreq.c **** 
 688              		.loc 1 877 11 is_stmt 1 view .LVU228
ARM GAS  /tmp/ccXjZKHH.s 			page 34


 877:Middlewares/ST/STM32_USB_Host_Library/Core/Src/usbh_ctlreq.c **** 
 689              		.loc 1 877 32 is_stmt 0 view .LVU229
 690 00b4 0B23     		movs	r3, #11
 691 00b6 2376     		strb	r3, [r4, #24]
 751:Middlewares/ST/STM32_USB_Host_Library/Core/Src/usbh_ctlreq.c ****   USBH_URBStateTypeDef URB_Status = USBH_URB_IDLE;
 692              		.loc 1 751 22 view .LVU230
 693 00b8 0125     		movs	r5, #1
 694 00ba B8E7     		b	.L35
 695              	.LVL46:
 696              	.L43:
 893:Middlewares/ST/STM32_USB_Host_Library/Core/Src/usbh_ctlreq.c ****                              phost->Control.pipe_out, 1U);
 697              		.loc 1 893 7 is_stmt 1 view .LVU231
 893:Middlewares/ST/STM32_USB_Host_Library/Core/Src/usbh_ctlreq.c ****                              phost->Control.pipe_out, 1U);
 698              		.loc 1 893 13 is_stmt 0 view .LVU232
 699 00bc 0125     		movs	r5, #1
 700 00be 0095     		str	r5, [sp]
 701 00c0 4379     		ldrb	r3, [r0, #5]	@ zero_extendqisi2
 702 00c2 8289     		ldrh	r2, [r0, #12]
 703 00c4 8168     		ldr	r1, [r0, #8]
 704 00c6 FFF7FEFF 		bl	USBH_CtlSendData
 705              	.LVL47:
 896:Middlewares/ST/STM32_USB_Host_Library/Core/Src/usbh_ctlreq.c ****       phost->Control.state = CTRL_DATA_OUT_WAIT;
 706              		.loc 1 896 7 is_stmt 1 view .LVU233
 896:Middlewares/ST/STM32_USB_Host_Library/Core/Src/usbh_ctlreq.c ****       phost->Control.state = CTRL_DATA_OUT_WAIT;
 707              		.loc 1 896 45 is_stmt 0 view .LVU234
 708 00ca D4F8C433 		ldr	r3, [r4, #964]
 896:Middlewares/ST/STM32_USB_Host_Library/Core/Src/usbh_ctlreq.c ****       phost->Control.state = CTRL_DATA_OUT_WAIT;
 709              		.loc 1 896 28 view .LVU235
 710 00ce E381     		strh	r3, [r4, #14]	@ movhi
 897:Middlewares/ST/STM32_USB_Host_Library/Core/Src/usbh_ctlreq.c ****       break;
 711              		.loc 1 897 7 is_stmt 1 view .LVU236
 897:Middlewares/ST/STM32_USB_Host_Library/Core/Src/usbh_ctlreq.c ****       break;
 712              		.loc 1 897 28 is_stmt 0 view .LVU237
 713 00d0 0623     		movs	r3, #6
 714 00d2 2376     		strb	r3, [r4, #24]
 898:Middlewares/ST/STM32_USB_Host_Library/Core/Src/usbh_ctlreq.c **** 
 715              		.loc 1 898 7 is_stmt 1 view .LVU238
 716 00d4 ABE7     		b	.L35
 717              	.LVL48:
 718              	.L42:
 902:Middlewares/ST/STM32_USB_Host_Library/Core/Src/usbh_ctlreq.c **** 
 719              		.loc 1 902 7 view .LVU239
 902:Middlewares/ST/STM32_USB_Host_Library/Core/Src/usbh_ctlreq.c **** 
 720              		.loc 1 902 20 is_stmt 0 view .LVU240
 721 00d6 4179     		ldrb	r1, [r0, #5]	@ zero_extendqisi2
 722 00d8 FFF7FEFF 		bl	USBH_LL_GetURBState
 723              	.LVL49:
 902:Middlewares/ST/STM32_USB_Host_Library/Core/Src/usbh_ctlreq.c **** 
 724              		.loc 1 902 20 view .LVU241
 725 00dc 0546     		mov	r5, r0
 726              	.LVL50:
 904:Middlewares/ST/STM32_USB_Host_Library/Core/Src/usbh_ctlreq.c ****       {
 727              		.loc 1 904 7 is_stmt 1 view .LVU242
 904:Middlewares/ST/STM32_USB_Host_Library/Core/Src/usbh_ctlreq.c ****       {
 728              		.loc 1 904 10 is_stmt 0 view .LVU243
 729 00de 0128     		cmp	r0, #1
 730 00e0 07D0     		beq	.L75
ARM GAS  /tmp/ccXjZKHH.s 			page 35


 920:Middlewares/ST/STM32_USB_Host_Library/Core/Src/usbh_ctlreq.c ****       {
 731              		.loc 1 920 12 is_stmt 1 view .LVU244
 920:Middlewares/ST/STM32_USB_Host_Library/Core/Src/usbh_ctlreq.c ****       {
 732              		.loc 1 920 15 is_stmt 0 view .LVU245
 733 00e2 0528     		cmp	r0, #5
 734 00e4 08D0     		beq	.L76
 935:Middlewares/ST/STM32_USB_Host_Library/Core/Src/usbh_ctlreq.c ****       {
 735              		.loc 1 935 12 is_stmt 1 view .LVU246
 935:Middlewares/ST/STM32_USB_Host_Library/Core/Src/usbh_ctlreq.c ****       {
 736              		.loc 1 935 15 is_stmt 0 view .LVU247
 737 00e6 0228     		cmp	r0, #2
 738 00e8 0AD0     		beq	.L77
 951:Middlewares/ST/STM32_USB_Host_Library/Core/Src/usbh_ctlreq.c ****         {
 739              		.loc 1 951 9 is_stmt 1 view .LVU248
 951:Middlewares/ST/STM32_USB_Host_Library/Core/Src/usbh_ctlreq.c ****         {
 740              		.loc 1 951 12 is_stmt 0 view .LVU249
 741 00ea 0428     		cmp	r0, #4
 742 00ec 0CD0     		beq	.L78
 751:Middlewares/ST/STM32_USB_Host_Library/Core/Src/usbh_ctlreq.c ****   USBH_URBStateTypeDef URB_Status = USBH_URB_IDLE;
 743              		.loc 1 751 22 view .LVU250
 744 00ee 0125     		movs	r5, #1
 745 00f0 9DE7     		b	.L35
 746              	.L75:
 907:Middlewares/ST/STM32_USB_Host_Library/Core/Src/usbh_ctlreq.c **** 
 747              		.loc 1 907 9 is_stmt 1 view .LVU251
 907:Middlewares/ST/STM32_USB_Host_Library/Core/Src/usbh_ctlreq.c **** 
 748              		.loc 1 907 30 is_stmt 0 view .LVU252
 749 00f2 0723     		movs	r3, #7
 750 00f4 2376     		strb	r3, [r4, #24]
 751 00f6 9AE7     		b	.L35
 752              	.L76:
 923:Middlewares/ST/STM32_USB_Host_Library/Core/Src/usbh_ctlreq.c ****         status = USBH_NOT_SUPPORTED;
 753              		.loc 1 923 9 is_stmt 1 view .LVU253
 923:Middlewares/ST/STM32_USB_Host_Library/Core/Src/usbh_ctlreq.c ****         status = USBH_NOT_SUPPORTED;
 754              		.loc 1 923 30 is_stmt 0 view .LVU254
 755 00f8 0C23     		movs	r3, #12
 756 00fa 2376     		strb	r3, [r4, #24]
 924:Middlewares/ST/STM32_USB_Host_Library/Core/Src/usbh_ctlreq.c **** 
 757              		.loc 1 924 9 is_stmt 1 view .LVU255
 758              	.LVL51:
 924:Middlewares/ST/STM32_USB_Host_Library/Core/Src/usbh_ctlreq.c **** 
 759              		.loc 1 924 16 is_stmt 0 view .LVU256
 760 00fc 0325     		movs	r5, #3
 761 00fe 96E7     		b	.L35
 762              	.LVL52:
 763              	.L77:
 938:Middlewares/ST/STM32_USB_Host_Library/Core/Src/usbh_ctlreq.c **** 
 764              		.loc 1 938 9 is_stmt 1 view .LVU257
 938:Middlewares/ST/STM32_USB_Host_Library/Core/Src/usbh_ctlreq.c **** 
 765              		.loc 1 938 30 is_stmt 0 view .LVU258
 766 0100 0523     		movs	r3, #5
 767 0102 2376     		strb	r3, [r4, #24]
 751:Middlewares/ST/STM32_USB_Host_Library/Core/Src/usbh_ctlreq.c ****   USBH_URBStateTypeDef URB_Status = USBH_URB_IDLE;
 768              		.loc 1 751 22 view .LVU259
 769 0104 0125     		movs	r5, #1
 770 0106 92E7     		b	.L35
 771              	.L78:
ARM GAS  /tmp/ccXjZKHH.s 			page 36


 954:Middlewares/ST/STM32_USB_Host_Library/Core/Src/usbh_ctlreq.c ****           status = USBH_FAIL;
 772              		.loc 1 954 11 is_stmt 1 view .LVU260
 954:Middlewares/ST/STM32_USB_Host_Library/Core/Src/usbh_ctlreq.c ****           status = USBH_FAIL;
 773              		.loc 1 954 32 is_stmt 0 view .LVU261
 774 0108 0B23     		movs	r3, #11
 775 010a 2376     		strb	r3, [r4, #24]
 955:Middlewares/ST/STM32_USB_Host_Library/Core/Src/usbh_ctlreq.c **** 
 776              		.loc 1 955 11 is_stmt 1 view .LVU262
 777              	.LVL53:
 955:Middlewares/ST/STM32_USB_Host_Library/Core/Src/usbh_ctlreq.c **** 
 778              		.loc 1 955 18 is_stmt 0 view .LVU263
 779 010c 0225     		movs	r5, #2
 780 010e 8EE7     		b	.L35
 781              	.LVL54:
 782              	.L41:
 971:Middlewares/ST/STM32_USB_Host_Library/Core/Src/usbh_ctlreq.c **** 
 783              		.loc 1 971 7 is_stmt 1 view .LVU264
 971:Middlewares/ST/STM32_USB_Host_Library/Core/Src/usbh_ctlreq.c **** 
 784              		.loc 1 971 13 is_stmt 0 view .LVU265
 785 0110 0379     		ldrb	r3, [r0, #4]	@ zero_extendqisi2
 786 0112 0022     		movs	r2, #0
 787 0114 1146     		mov	r1, r2
 788 0116 FFF7FEFF 		bl	USBH_CtlReceiveData
 789              	.LVL55:
 973:Middlewares/ST/STM32_USB_Host_Library/Core/Src/usbh_ctlreq.c ****       phost->Control.state = CTRL_STATUS_IN_WAIT;
 790              		.loc 1 973 7 is_stmt 1 view .LVU266
 973:Middlewares/ST/STM32_USB_Host_Library/Core/Src/usbh_ctlreq.c ****       phost->Control.state = CTRL_STATUS_IN_WAIT;
 791              		.loc 1 973 45 is_stmt 0 view .LVU267
 792 011a D4F8C433 		ldr	r3, [r4, #964]
 973:Middlewares/ST/STM32_USB_Host_Library/Core/Src/usbh_ctlreq.c ****       phost->Control.state = CTRL_STATUS_IN_WAIT;
 793              		.loc 1 973 28 view .LVU268
 794 011e E381     		strh	r3, [r4, #14]	@ movhi
 974:Middlewares/ST/STM32_USB_Host_Library/Core/Src/usbh_ctlreq.c **** 
 795              		.loc 1 974 7 is_stmt 1 view .LVU269
 974:Middlewares/ST/STM32_USB_Host_Library/Core/Src/usbh_ctlreq.c **** 
 796              		.loc 1 974 28 is_stmt 0 view .LVU270
 797 0120 0823     		movs	r3, #8
 798 0122 2376     		strb	r3, [r4, #24]
 976:Middlewares/ST/STM32_USB_Host_Library/Core/Src/usbh_ctlreq.c **** 
 799              		.loc 1 976 7 is_stmt 1 view .LVU271
 751:Middlewares/ST/STM32_USB_Host_Library/Core/Src/usbh_ctlreq.c ****   USBH_URBStateTypeDef URB_Status = USBH_URB_IDLE;
 800              		.loc 1 751 22 is_stmt 0 view .LVU272
 801 0124 0125     		movs	r5, #1
 976:Middlewares/ST/STM32_USB_Host_Library/Core/Src/usbh_ctlreq.c **** 
 802              		.loc 1 976 7 view .LVU273
 803 0126 82E7     		b	.L35
 804              	.LVL56:
 805              	.L40:
 980:Middlewares/ST/STM32_USB_Host_Library/Core/Src/usbh_ctlreq.c **** 
 806              		.loc 1 980 7 is_stmt 1 view .LVU274
 980:Middlewares/ST/STM32_USB_Host_Library/Core/Src/usbh_ctlreq.c **** 
 807              		.loc 1 980 20 is_stmt 0 view .LVU275
 808 0128 0179     		ldrb	r1, [r0, #4]	@ zero_extendqisi2
 809 012a FFF7FEFF 		bl	USBH_LL_GetURBState
 810              	.LVL57:
 982:Middlewares/ST/STM32_USB_Host_Library/Core/Src/usbh_ctlreq.c ****       {
 811              		.loc 1 982 7 is_stmt 1 view .LVU276
ARM GAS  /tmp/ccXjZKHH.s 			page 37


 982:Middlewares/ST/STM32_USB_Host_Library/Core/Src/usbh_ctlreq.c ****       {
 812              		.loc 1 982 10 is_stmt 0 view .LVU277
 813 012e 0128     		cmp	r0, #1
 814 0130 05D0     		beq	.L79
 997:Middlewares/ST/STM32_USB_Host_Library/Core/Src/usbh_ctlreq.c ****       {
 815              		.loc 1 997 12 is_stmt 1 view .LVU278
 997:Middlewares/ST/STM32_USB_Host_Library/Core/Src/usbh_ctlreq.c ****       {
 816              		.loc 1 997 15 is_stmt 0 view .LVU279
 817 0132 0428     		cmp	r0, #4
 818 0134 07D0     		beq	.L80
1012:Middlewares/ST/STM32_USB_Host_Library/Core/Src/usbh_ctlreq.c ****         {
 819              		.loc 1 1012 9 is_stmt 1 view .LVU280
1012:Middlewares/ST/STM32_USB_Host_Library/Core/Src/usbh_ctlreq.c ****         {
 820              		.loc 1 1012 12 is_stmt 0 view .LVU281
 821 0136 0528     		cmp	r0, #5
 822 0138 4CD0     		beq	.L67
 751:Middlewares/ST/STM32_USB_Host_Library/Core/Src/usbh_ctlreq.c ****   USBH_URBStateTypeDef URB_Status = USBH_URB_IDLE;
 823              		.loc 1 751 22 view .LVU282
 824 013a 0125     		movs	r5, #1
 825 013c 77E7     		b	.L35
 826              	.L79:
 985:Middlewares/ST/STM32_USB_Host_Library/Core/Src/usbh_ctlreq.c ****         status = USBH_OK;
 827              		.loc 1 985 9 is_stmt 1 view .LVU283
 985:Middlewares/ST/STM32_USB_Host_Library/Core/Src/usbh_ctlreq.c ****         status = USBH_OK;
 828              		.loc 1 985 30 is_stmt 0 view .LVU284
 829 013e 0D23     		movs	r3, #13
 830 0140 2376     		strb	r3, [r4, #24]
 986:Middlewares/ST/STM32_USB_Host_Library/Core/Src/usbh_ctlreq.c **** 
 831              		.loc 1 986 9 is_stmt 1 view .LVU285
 832              	.LVL58:
 986:Middlewares/ST/STM32_USB_Host_Library/Core/Src/usbh_ctlreq.c **** 
 833              		.loc 1 986 16 is_stmt 0 view .LVU286
 834 0142 0025     		movs	r5, #0
 835 0144 73E7     		b	.L35
 836              	.LVL59:
 837              	.L80:
 999:Middlewares/ST/STM32_USB_Host_Library/Core/Src/usbh_ctlreq.c **** 
 838              		.loc 1 999 9 is_stmt 1 view .LVU287
 999:Middlewares/ST/STM32_USB_Host_Library/Core/Src/usbh_ctlreq.c **** 
 839              		.loc 1 999 30 is_stmt 0 view .LVU288
 840 0146 0B23     		movs	r3, #11
 841 0148 2376     		strb	r3, [r4, #24]
 751:Middlewares/ST/STM32_USB_Host_Library/Core/Src/usbh_ctlreq.c ****   USBH_URBStateTypeDef URB_Status = USBH_URB_IDLE;
 842              		.loc 1 751 22 view .LVU289
 843 014a 0125     		movs	r5, #1
 844 014c 6FE7     		b	.L35
 845              	.LVL60:
 846              	.L39:
1030:Middlewares/ST/STM32_USB_Host_Library/Core/Src/usbh_ctlreq.c **** 
 847              		.loc 1 1030 7 is_stmt 1 view .LVU290
1030:Middlewares/ST/STM32_USB_Host_Library/Core/Src/usbh_ctlreq.c **** 
 848              		.loc 1 1030 13 is_stmt 0 view .LVU291
 849 014e 0125     		movs	r5, #1
 850 0150 0095     		str	r5, [sp]
 851 0152 4379     		ldrb	r3, [r0, #5]	@ zero_extendqisi2
 852 0154 0022     		movs	r2, #0
 853 0156 1146     		mov	r1, r2
ARM GAS  /tmp/ccXjZKHH.s 			page 38


 854 0158 FFF7FEFF 		bl	USBH_CtlSendData
 855              	.LVL61:
1032:Middlewares/ST/STM32_USB_Host_Library/Core/Src/usbh_ctlreq.c ****       phost->Control.state = CTRL_STATUS_OUT_WAIT;
 856              		.loc 1 1032 7 is_stmt 1 view .LVU292
1032:Middlewares/ST/STM32_USB_Host_Library/Core/Src/usbh_ctlreq.c ****       phost->Control.state = CTRL_STATUS_OUT_WAIT;
 857              		.loc 1 1032 45 is_stmt 0 view .LVU293
 858 015c D4F8C433 		ldr	r3, [r4, #964]
1032:Middlewares/ST/STM32_USB_Host_Library/Core/Src/usbh_ctlreq.c ****       phost->Control.state = CTRL_STATUS_OUT_WAIT;
 859              		.loc 1 1032 28 view .LVU294
 860 0160 E381     		strh	r3, [r4, #14]	@ movhi
1033:Middlewares/ST/STM32_USB_Host_Library/Core/Src/usbh_ctlreq.c ****       break;
 861              		.loc 1 1033 7 is_stmt 1 view .LVU295
1033:Middlewares/ST/STM32_USB_Host_Library/Core/Src/usbh_ctlreq.c ****       break;
 862              		.loc 1 1033 28 is_stmt 0 view .LVU296
 863 0162 0A23     		movs	r3, #10
 864 0164 2376     		strb	r3, [r4, #24]
1034:Middlewares/ST/STM32_USB_Host_Library/Core/Src/usbh_ctlreq.c **** 
 865              		.loc 1 1034 7 is_stmt 1 view .LVU297
 866 0166 62E7     		b	.L35
 867              	.LVL62:
 868              	.L38:
1037:Middlewares/ST/STM32_USB_Host_Library/Core/Src/usbh_ctlreq.c ****       if (URB_Status == USBH_URB_DONE)
 869              		.loc 1 1037 7 view .LVU298
1037:Middlewares/ST/STM32_USB_Host_Library/Core/Src/usbh_ctlreq.c ****       if (URB_Status == USBH_URB_DONE)
 870              		.loc 1 1037 20 is_stmt 0 view .LVU299
 871 0168 4179     		ldrb	r1, [r0, #5]	@ zero_extendqisi2
 872 016a FFF7FEFF 		bl	USBH_LL_GetURBState
 873              	.LVL63:
1038:Middlewares/ST/STM32_USB_Host_Library/Core/Src/usbh_ctlreq.c ****       {
 874              		.loc 1 1038 7 is_stmt 1 view .LVU300
1038:Middlewares/ST/STM32_USB_Host_Library/Core/Src/usbh_ctlreq.c ****       {
 875              		.loc 1 1038 10 is_stmt 0 view .LVU301
 876 016e 0128     		cmp	r0, #1
 877 0170 05D0     		beq	.L81
1052:Middlewares/ST/STM32_USB_Host_Library/Core/Src/usbh_ctlreq.c ****       {
 878              		.loc 1 1052 12 is_stmt 1 view .LVU302
1052:Middlewares/ST/STM32_USB_Host_Library/Core/Src/usbh_ctlreq.c ****       {
 879              		.loc 1 1052 15 is_stmt 0 view .LVU303
 880 0172 0228     		cmp	r0, #2
 881 0174 07D0     		beq	.L82
1067:Middlewares/ST/STM32_USB_Host_Library/Core/Src/usbh_ctlreq.c ****         {
 882              		.loc 1 1067 9 is_stmt 1 view .LVU304
1067:Middlewares/ST/STM32_USB_Host_Library/Core/Src/usbh_ctlreq.c ****         {
 883              		.loc 1 1067 12 is_stmt 0 view .LVU305
 884 0176 0428     		cmp	r0, #4
 885 0178 09D0     		beq	.L83
 751:Middlewares/ST/STM32_USB_Host_Library/Core/Src/usbh_ctlreq.c ****   USBH_URBStateTypeDef URB_Status = USBH_URB_IDLE;
 886              		.loc 1 751 22 view .LVU306
 887 017a 0125     		movs	r5, #1
 888 017c 57E7     		b	.L35
 889              	.L81:
1040:Middlewares/ST/STM32_USB_Host_Library/Core/Src/usbh_ctlreq.c ****         phost->Control.state = CTRL_COMPLETE;
 890              		.loc 1 1040 9 is_stmt 1 view .LVU307
 891              	.LVL64:
1041:Middlewares/ST/STM32_USB_Host_Library/Core/Src/usbh_ctlreq.c **** 
 892              		.loc 1 1041 9 view .LVU308
1041:Middlewares/ST/STM32_USB_Host_Library/Core/Src/usbh_ctlreq.c **** 
ARM GAS  /tmp/ccXjZKHH.s 			page 39


 893              		.loc 1 1041 30 is_stmt 0 view .LVU309
 894 017e 0D23     		movs	r3, #13
 895 0180 2376     		strb	r3, [r4, #24]
1040:Middlewares/ST/STM32_USB_Host_Library/Core/Src/usbh_ctlreq.c ****         phost->Control.state = CTRL_COMPLETE;
 896              		.loc 1 1040 16 view .LVU310
 897 0182 0025     		movs	r5, #0
 898 0184 53E7     		b	.L35
 899              	.LVL65:
 900              	.L82:
1054:Middlewares/ST/STM32_USB_Host_Library/Core/Src/usbh_ctlreq.c **** 
 901              		.loc 1 1054 9 is_stmt 1 view .LVU311
1054:Middlewares/ST/STM32_USB_Host_Library/Core/Src/usbh_ctlreq.c **** 
 902              		.loc 1 1054 30 is_stmt 0 view .LVU312
 903 0186 0923     		movs	r3, #9
 904 0188 2376     		strb	r3, [r4, #24]
 751:Middlewares/ST/STM32_USB_Host_Library/Core/Src/usbh_ctlreq.c ****   USBH_URBStateTypeDef URB_Status = USBH_URB_IDLE;
 905              		.loc 1 751 22 view .LVU313
 906 018a 0125     		movs	r5, #1
 907 018c 4FE7     		b	.L35
 908              	.L83:
1069:Middlewares/ST/STM32_USB_Host_Library/Core/Src/usbh_ctlreq.c **** 
 909              		.loc 1 1069 11 is_stmt 1 view .LVU314
1069:Middlewares/ST/STM32_USB_Host_Library/Core/Src/usbh_ctlreq.c **** 
 910              		.loc 1 1069 32 is_stmt 0 view .LVU315
 911 018e 0B23     		movs	r3, #11
 912 0190 2376     		strb	r3, [r4, #24]
 751:Middlewares/ST/STM32_USB_Host_Library/Core/Src/usbh_ctlreq.c ****   USBH_URBStateTypeDef URB_Status = USBH_URB_IDLE;
 913              		.loc 1 751 22 view .LVU316
 914 0192 0125     		movs	r5, #1
 915 0194 4BE7     		b	.L35
 916              	.LVL66:
 917              	.L36:
1092:Middlewares/ST/STM32_USB_Host_Library/Core/Src/usbh_ctlreq.c ****       {
 918              		.loc 1 1092 7 is_stmt 1 view .LVU317
1092:Middlewares/ST/STM32_USB_Host_Library/Core/Src/usbh_ctlreq.c ****       {
 919              		.loc 1 1092 27 is_stmt 0 view .LVU318
 920 0196 437E     		ldrb	r3, [r0, #25]	@ zero_extendqisi2
1092:Middlewares/ST/STM32_USB_Host_Library/Core/Src/usbh_ctlreq.c ****       {
 921              		.loc 1 1092 11 view .LVU319
 922 0198 0133     		adds	r3, r3, #1
 923 019a DBB2     		uxtb	r3, r3
1092:Middlewares/ST/STM32_USB_Host_Library/Core/Src/usbh_ctlreq.c ****       {
 924              		.loc 1 1092 10 view .LVU320
 925 019c 4376     		strb	r3, [r0, #25]
 926 019e 022B     		cmp	r3, #2
 927 01a0 03D8     		bhi	.L61
1095:Middlewares/ST/STM32_USB_Host_Library/Core/Src/usbh_ctlreq.c ****         phost->RequestState = CMD_SEND;
 928              		.loc 1 1095 9 is_stmt 1 view .LVU321
1095:Middlewares/ST/STM32_USB_Host_Library/Core/Src/usbh_ctlreq.c ****         phost->RequestState = CMD_SEND;
 929              		.loc 1 1095 30 is_stmt 0 view .LVU322
 930 01a2 0125     		movs	r5, #1
 931 01a4 0576     		strb	r5, [r0, #24]
1096:Middlewares/ST/STM32_USB_Host_Library/Core/Src/usbh_ctlreq.c ****       }
 932              		.loc 1 1096 9 is_stmt 1 view .LVU323
1096:Middlewares/ST/STM32_USB_Host_Library/Core/Src/usbh_ctlreq.c ****       }
 933              		.loc 1 1096 29 is_stmt 0 view .LVU324
 934 01a6 8570     		strb	r5, [r0, #2]
ARM GAS  /tmp/ccXjZKHH.s 			page 40


 935 01a8 41E7     		b	.L35
 936              	.L61:
1100:Middlewares/ST/STM32_USB_Host_Library/Core/Src/usbh_ctlreq.c ****         phost->Control.errorcount = 0U;
 937              		.loc 1 1100 9 is_stmt 1 view .LVU325
1100:Middlewares/ST/STM32_USB_Host_Library/Core/Src/usbh_ctlreq.c ****         phost->Control.errorcount = 0U;
 938              		.loc 1 1100 14 is_stmt 0 view .LVU326
 939 01aa D0F8D433 		ldr	r3, [r0, #980]
1100:Middlewares/ST/STM32_USB_Host_Library/Core/Src/usbh_ctlreq.c ****         phost->Control.errorcount = 0U;
 940              		.loc 1 1100 9 view .LVU327
 941 01ae 0621     		movs	r1, #6
 942 01b0 9847     		blx	r3
 943              	.LVL67:
1101:Middlewares/ST/STM32_USB_Host_Library/Core/Src/usbh_ctlreq.c ****         USBH_ErrLog("Control error: Device not responding");
 944              		.loc 1 1101 9 is_stmt 1 view .LVU328
1101:Middlewares/ST/STM32_USB_Host_Library/Core/Src/usbh_ctlreq.c ****         USBH_ErrLog("Control error: Device not responding");
 945              		.loc 1 1101 35 is_stmt 0 view .LVU329
 946 01b2 0025     		movs	r5, #0
 947 01b4 6576     		strb	r5, [r4, #25]
1102:Middlewares/ST/STM32_USB_Host_Library/Core/Src/usbh_ctlreq.c **** 
 948              		.loc 1 1102 9 is_stmt 1 view .LVU330
1102:Middlewares/ST/STM32_USB_Host_Library/Core/Src/usbh_ctlreq.c **** 
 949              		.loc 1 1102 9 view .LVU331
1102:Middlewares/ST/STM32_USB_Host_Library/Core/Src/usbh_ctlreq.c **** 
 950              		.loc 1 1102 9 view .LVU332
1105:Middlewares/ST/STM32_USB_Host_Library/Core/Src/usbh_ctlreq.c ****         (void)USBH_FreePipe(phost, phost->Control.pipe_in);
 951              		.loc 1 1105 9 view .LVU333
1105:Middlewares/ST/STM32_USB_Host_Library/Core/Src/usbh_ctlreq.c ****         (void)USBH_FreePipe(phost, phost->Control.pipe_in);
 952              		.loc 1 1105 15 is_stmt 0 view .LVU334
 953 01b6 6179     		ldrb	r1, [r4, #5]	@ zero_extendqisi2
 954 01b8 2046     		mov	r0, r4
 955 01ba FFF7FEFF 		bl	USBH_FreePipe
 956              	.LVL68:
1106:Middlewares/ST/STM32_USB_Host_Library/Core/Src/usbh_ctlreq.c **** 
 957              		.loc 1 1106 9 is_stmt 1 view .LVU335
1106:Middlewares/ST/STM32_USB_Host_Library/Core/Src/usbh_ctlreq.c **** 
 958              		.loc 1 1106 15 is_stmt 0 view .LVU336
 959 01be 2179     		ldrb	r1, [r4, #4]	@ zero_extendqisi2
 960 01c0 2046     		mov	r0, r4
 961 01c2 FFF7FEFF 		bl	USBH_FreePipe
 962              	.LVL69:
1108:Middlewares/ST/STM32_USB_Host_Library/Core/Src/usbh_ctlreq.c ****         status = USBH_FAIL;
 963              		.loc 1 1108 9 is_stmt 1 view .LVU337
1108:Middlewares/ST/STM32_USB_Host_Library/Core/Src/usbh_ctlreq.c ****         status = USBH_FAIL;
 964              		.loc 1 1108 23 is_stmt 0 view .LVU338
 965 01c6 2570     		strb	r5, [r4]
1109:Middlewares/ST/STM32_USB_Host_Library/Core/Src/usbh_ctlreq.c ****       }
 966              		.loc 1 1109 9 is_stmt 1 view .LVU339
 967              	.LVL70:
1109:Middlewares/ST/STM32_USB_Host_Library/Core/Src/usbh_ctlreq.c ****       }
 968              		.loc 1 1109 16 is_stmt 0 view .LVU340
 969 01c8 0225     		movs	r5, #2
 970 01ca 30E7     		b	.L35
 971              	.LVL71:
 972              	.L62:
 754:Middlewares/ST/STM32_USB_Host_Library/Core/Src/usbh_ctlreq.c ****   {
 973              		.loc 1 754 25 view .LVU341
 974 01cc 0125     		movs	r5, #1
ARM GAS  /tmp/ccXjZKHH.s 			page 41


 975 01ce 2EE7     		b	.L35
 976              	.LVL72:
 977              	.L64:
 861:Middlewares/ST/STM32_USB_Host_Library/Core/Src/usbh_ctlreq.c **** 
 978              		.loc 1 861 16 view .LVU342
 979 01d0 0325     		movs	r5, #3
 980 01d2 2CE7     		b	.L35
 981              	.L67:
1015:Middlewares/ST/STM32_USB_Host_Library/Core/Src/usbh_ctlreq.c **** 
 982              		.loc 1 1015 18 view .LVU343
 983 01d4 0325     		movs	r5, #3
 984 01d6 2AE7     		b	.L35
 985              		.cfi_endproc
 986              	.LFE149:
 988              		.section	.text.USBH_GetNextDesc,"ax",%progbits
 989              		.align	1
 990              		.global	USBH_GetNextDesc
 991              		.syntax unified
 992              		.thumb
 993              		.thumb_func
 994              		.fpu fpv4-sp-d16
 996              	USBH_GetNextDesc:
 997              	.LVL73:
 998              	.LFB147:
 661:Middlewares/ST/STM32_USB_Host_Library/Core/Src/usbh_ctlreq.c ****   USBH_DescHeader_t  *pnext;
 999              		.loc 1 661 1 is_stmt 1 view -0
 1000              		.cfi_startproc
 1001              		@ args = 0, pretend = 0, frame = 0
 1002              		@ frame_needed = 0, uses_anonymous_args = 0
 1003              		@ link register save eliminated.
 662:Middlewares/ST/STM32_USB_Host_Library/Core/Src/usbh_ctlreq.c **** 
 1004              		.loc 1 662 3 view .LVU345
 664:Middlewares/ST/STM32_USB_Host_Library/Core/Src/usbh_ctlreq.c ****   pnext = (USBH_DescHeader_t *)(void *)((uint8_t *)(void *)pbuf + \
 1005              		.loc 1 664 3 view .LVU346
 664:Middlewares/ST/STM32_USB_Host_Library/Core/Src/usbh_ctlreq.c ****   pnext = (USBH_DescHeader_t *)(void *)((uint8_t *)(void *)pbuf + \
 1006              		.loc 1 664 46 is_stmt 0 view .LVU347
 1007 0000 0378     		ldrb	r3, [r0]	@ zero_extendqisi2
 664:Middlewares/ST/STM32_USB_Host_Library/Core/Src/usbh_ctlreq.c ****   pnext = (USBH_DescHeader_t *)(void *)((uint8_t *)(void *)pbuf + \
 1008              		.loc 1 664 8 view .LVU348
 1009 0002 0A88     		ldrh	r2, [r1]
 1010 0004 1344     		add	r3, r3, r2
 1011 0006 0B80     		strh	r3, [r1]	@ movhi
 665:Middlewares/ST/STM32_USB_Host_Library/Core/Src/usbh_ctlreq.c ****                                         ((USBH_DescHeader_t *)(void *)pbuf)->bLength);
 1012              		.loc 1 665 3 is_stmt 1 view .LVU349
 666:Middlewares/ST/STM32_USB_Host_Library/Core/Src/usbh_ctlreq.c **** 
 1013              		.loc 1 666 76 is_stmt 0 view .LVU350
 1014 0008 0378     		ldrb	r3, [r0]	@ zero_extendqisi2
 1015              	.LVL74:
 668:Middlewares/ST/STM32_USB_Host_Library/Core/Src/usbh_ctlreq.c **** }
 1016              		.loc 1 668 3 is_stmt 1 view .LVU351
 669:Middlewares/ST/STM32_USB_Host_Library/Core/Src/usbh_ctlreq.c **** 
 1017              		.loc 1 669 1 is_stmt 0 view .LVU352
 1018 000a 1844     		add	r0, r0, r3
 1019              	.LVL75:
 669:Middlewares/ST/STM32_USB_Host_Library/Core/Src/usbh_ctlreq.c **** 
 1020              		.loc 1 669 1 view .LVU353
 1021 000c 7047     		bx	lr
ARM GAS  /tmp/ccXjZKHH.s 			page 42


 1022              		.cfi_endproc
 1023              	.LFE147:
 1025              		.section	.text.USBH_ParseCfgDesc,"ax",%progbits
 1026              		.align	1
 1027              		.syntax unified
 1028              		.thumb
 1029              		.thumb_func
 1030              		.fpu fpv4-sp-d16
 1032              	USBH_ParseCfgDesc:
 1033              	.LVL76:
 1034              	.LFB143:
 403:Middlewares/ST/STM32_USB_Host_Library/Core/Src/usbh_ctlreq.c ****   USBH_CfgDescTypeDef *cfg_desc = &phost->device.CfgDesc;
 1035              		.loc 1 403 1 is_stmt 1 view -0
 1036              		.cfi_startproc
 1037              		@ args = 0, pretend = 0, frame = 8
 1038              		@ frame_needed = 0, uses_anonymous_args = 0
 403:Middlewares/ST/STM32_USB_Host_Library/Core/Src/usbh_ctlreq.c ****   USBH_CfgDescTypeDef *cfg_desc = &phost->device.CfgDesc;
 1039              		.loc 1 403 1 is_stmt 0 view .LVU355
 1040 0000 2DE9F043 		push	{r4, r5, r6, r7, r8, r9, lr}
 1041              	.LCFI11:
 1042              		.cfi_def_cfa_offset 28
 1043              		.cfi_offset 4, -28
 1044              		.cfi_offset 5, -24
 1045              		.cfi_offset 6, -20
 1046              		.cfi_offset 7, -16
 1047              		.cfi_offset 8, -12
 1048              		.cfi_offset 9, -8
 1049              		.cfi_offset 14, -4
 1050 0004 83B0     		sub	sp, sp, #12
 1051              	.LCFI12:
 1052              		.cfi_def_cfa_offset 40
 1053 0006 0546     		mov	r5, r0
 1054 0008 0C46     		mov	r4, r1
 404:Middlewares/ST/STM32_USB_Host_Library/Core/Src/usbh_ctlreq.c ****   USBH_StatusTypeDef           status = USBH_OK;
 1055              		.loc 1 404 3 is_stmt 1 view .LVU356
 1056              	.LVL77:
 405:Middlewares/ST/STM32_USB_Host_Library/Core/Src/usbh_ctlreq.c ****   USBH_InterfaceDescTypeDef    *pif ;
 1057              		.loc 1 405 3 view .LVU357
 406:Middlewares/ST/STM32_USB_Host_Library/Core/Src/usbh_ctlreq.c ****   USBH_EpDescTypeDef           *pep;
 1058              		.loc 1 406 3 view .LVU358
 407:Middlewares/ST/STM32_USB_Host_Library/Core/Src/usbh_ctlreq.c ****   USBH_DescHeader_t            *pdesc = (USBH_DescHeader_t *)(void *)buf;
 1059              		.loc 1 407 3 view .LVU359
 408:Middlewares/ST/STM32_USB_Host_Library/Core/Src/usbh_ctlreq.c ****   uint16_t                     ptr;
 1060              		.loc 1 408 3 view .LVU360
 409:Middlewares/ST/STM32_USB_Host_Library/Core/Src/usbh_ctlreq.c ****   uint8_t                      if_ix = 0U;
 1061              		.loc 1 409 3 view .LVU361
 410:Middlewares/ST/STM32_USB_Host_Library/Core/Src/usbh_ctlreq.c ****   uint8_t                      ep_ix = 0U;
 1062              		.loc 1 410 3 view .LVU362
 411:Middlewares/ST/STM32_USB_Host_Library/Core/Src/usbh_ctlreq.c **** 
 1063              		.loc 1 411 3 view .LVU363
 413:Middlewares/ST/STM32_USB_Host_Library/Core/Src/usbh_ctlreq.c **** 
 1064              		.loc 1 413 3 view .LVU364
 416:Middlewares/ST/STM32_USB_Host_Library/Core/Src/usbh_ctlreq.c ****   cfg_desc->bDescriptorType     = *(uint8_t *)(buf + 1);
 1065              		.loc 1 416 3 view .LVU365
 416:Middlewares/ST/STM32_USB_Host_Library/Core/Src/usbh_ctlreq.c ****   cfg_desc->bDescriptorType     = *(uint8_t *)(buf + 1);
 1066              		.loc 1 416 35 is_stmt 0 view .LVU366
 1067 000a 0978     		ldrb	r1, [r1]	@ zero_extendqisi2
ARM GAS  /tmp/ccXjZKHH.s 			page 43


 1068              	.LVL78:
 416:Middlewares/ST/STM32_USB_Host_Library/Core/Src/usbh_ctlreq.c ****   cfg_desc->bDescriptorType     = *(uint8_t *)(buf + 1);
 1069              		.loc 1 416 33 view .LVU367
 1070 000c 80F83813 		strb	r1, [r0, #824]
 417:Middlewares/ST/STM32_USB_Host_Library/Core/Src/usbh_ctlreq.c ****   cfg_desc->wTotalLength        = MIN(((uint16_t) LE16(buf + 2)), ((uint16_t)USBH_MAX_SIZE_CONFIGUR
 1071              		.loc 1 417 3 is_stmt 1 view .LVU368
 417:Middlewares/ST/STM32_USB_Host_Library/Core/Src/usbh_ctlreq.c ****   cfg_desc->wTotalLength        = MIN(((uint16_t) LE16(buf + 2)), ((uint16_t)USBH_MAX_SIZE_CONFIGUR
 1072              		.loc 1 417 33 is_stmt 0 view .LVU369
 1073 0010 6378     		ldrb	r3, [r4, #1]	@ zero_extendqisi2
 1074 0012 80F83933 		strb	r3, [r0, #825]
 418:Middlewares/ST/STM32_USB_Host_Library/Core/Src/usbh_ctlreq.c ****   cfg_desc->bNumInterfaces      = *(uint8_t *)(buf + 4);
 1075              		.loc 1 418 3 is_stmt 1 view .LVU370
 418:Middlewares/ST/STM32_USB_Host_Library/Core/Src/usbh_ctlreq.c ****   cfg_desc->bNumInterfaces      = *(uint8_t *)(buf + 4);
 1076              		.loc 1 418 35 is_stmt 0 view .LVU371
 1077 0016 A378     		ldrb	r3, [r4, #2]	@ zero_extendqisi2
 1078 0018 E078     		ldrb	r0, [r4, #3]	@ zero_extendqisi2
 1079              	.LVL79:
 418:Middlewares/ST/STM32_USB_Host_Library/Core/Src/usbh_ctlreq.c ****   cfg_desc->bNumInterfaces      = *(uint8_t *)(buf + 4);
 1080              		.loc 1 418 35 view .LVU372
 1081 001a 43EA0023 		orr	r3, r3, r0, lsl #8
 1082 001e B3F5807F 		cmp	r3, #256
 1083 0022 28BF     		it	cs
 1084 0024 4FF48073 		movcs	r3, #256
 418:Middlewares/ST/STM32_USB_Host_Library/Core/Src/usbh_ctlreq.c ****   cfg_desc->bNumInterfaces      = *(uint8_t *)(buf + 4);
 1085              		.loc 1 418 33 view .LVU373
 1086 0028 A5F83A33 		strh	r3, [r5, #826]	@ movhi
 419:Middlewares/ST/STM32_USB_Host_Library/Core/Src/usbh_ctlreq.c ****   cfg_desc->bConfigurationValue = *(uint8_t *)(buf + 5);
 1087              		.loc 1 419 3 is_stmt 1 view .LVU374
 419:Middlewares/ST/STM32_USB_Host_Library/Core/Src/usbh_ctlreq.c ****   cfg_desc->bConfigurationValue = *(uint8_t *)(buf + 5);
 1088              		.loc 1 419 33 is_stmt 0 view .LVU375
 1089 002c 2379     		ldrb	r3, [r4, #4]	@ zero_extendqisi2
 1090 002e 85F83C33 		strb	r3, [r5, #828]
 420:Middlewares/ST/STM32_USB_Host_Library/Core/Src/usbh_ctlreq.c ****   cfg_desc->iConfiguration      = *(uint8_t *)(buf + 6);
 1091              		.loc 1 420 3 is_stmt 1 view .LVU376
 420:Middlewares/ST/STM32_USB_Host_Library/Core/Src/usbh_ctlreq.c ****   cfg_desc->iConfiguration      = *(uint8_t *)(buf + 6);
 1092              		.loc 1 420 33 is_stmt 0 view .LVU377
 1093 0032 6379     		ldrb	r3, [r4, #5]	@ zero_extendqisi2
 1094 0034 85F83D33 		strb	r3, [r5, #829]
 421:Middlewares/ST/STM32_USB_Host_Library/Core/Src/usbh_ctlreq.c ****   cfg_desc->bmAttributes        = *(uint8_t *)(buf + 7);
 1095              		.loc 1 421 3 is_stmt 1 view .LVU378
 421:Middlewares/ST/STM32_USB_Host_Library/Core/Src/usbh_ctlreq.c ****   cfg_desc->bmAttributes        = *(uint8_t *)(buf + 7);
 1096              		.loc 1 421 33 is_stmt 0 view .LVU379
 1097 0038 A379     		ldrb	r3, [r4, #6]	@ zero_extendqisi2
 1098 003a 85F83E33 		strb	r3, [r5, #830]
 422:Middlewares/ST/STM32_USB_Host_Library/Core/Src/usbh_ctlreq.c ****   cfg_desc->bMaxPower           = *(uint8_t *)(buf + 8);
 1099              		.loc 1 422 3 is_stmt 1 view .LVU380
 422:Middlewares/ST/STM32_USB_Host_Library/Core/Src/usbh_ctlreq.c ****   cfg_desc->bMaxPower           = *(uint8_t *)(buf + 8);
 1100              		.loc 1 422 33 is_stmt 0 view .LVU381
 1101 003e E379     		ldrb	r3, [r4, #7]	@ zero_extendqisi2
 1102 0040 85F83F33 		strb	r3, [r5, #831]
 423:Middlewares/ST/STM32_USB_Host_Library/Core/Src/usbh_ctlreq.c **** 
 1103              		.loc 1 423 3 is_stmt 1 view .LVU382
 423:Middlewares/ST/STM32_USB_Host_Library/Core/Src/usbh_ctlreq.c **** 
 1104              		.loc 1 423 33 is_stmt 0 view .LVU383
 1105 0044 237A     		ldrb	r3, [r4, #8]	@ zero_extendqisi2
 1106 0046 85F84033 		strb	r3, [r5, #832]
 426:Middlewares/ST/STM32_USB_Host_Library/Core/Src/usbh_ctlreq.c ****   {
ARM GAS  /tmp/ccXjZKHH.s 			page 44


 1107              		.loc 1 426 3 is_stmt 1 view .LVU384
 426:Middlewares/ST/STM32_USB_Host_Library/Core/Src/usbh_ctlreq.c ****   {
 1108              		.loc 1 426 6 is_stmt 0 view .LVU385
 1109 004a 0929     		cmp	r1, #9
 1110 004c 02D0     		beq	.L86
 428:Middlewares/ST/STM32_USB_Host_Library/Core/Src/usbh_ctlreq.c ****   }
 1111              		.loc 1 428 5 is_stmt 1 view .LVU386
 428:Middlewares/ST/STM32_USB_Host_Library/Core/Src/usbh_ctlreq.c ****   }
 1112              		.loc 1 428 23 is_stmt 0 view .LVU387
 1113 004e 0923     		movs	r3, #9
 1114 0050 85F83833 		strb	r3, [r5, #824]
 1115              	.L86:
 431:Middlewares/ST/STM32_USB_Host_Library/Core/Src/usbh_ctlreq.c ****   {
 1116              		.loc 1 431 3 is_stmt 1 view .LVU388
 431:Middlewares/ST/STM32_USB_Host_Library/Core/Src/usbh_ctlreq.c ****   {
 1117              		.loc 1 431 6 is_stmt 0 view .LVU389
 1118 0054 092A     		cmp	r2, #9
 1119 0056 40F28180 		bls	.L99
 433:Middlewares/ST/STM32_USB_Host_Library/Core/Src/usbh_ctlreq.c ****     pif = (USBH_InterfaceDescTypeDef *)NULL;
 1120              		.loc 1 433 5 is_stmt 1 view .LVU390
 433:Middlewares/ST/STM32_USB_Host_Library/Core/Src/usbh_ctlreq.c ****     pif = (USBH_InterfaceDescTypeDef *)NULL;
 1121              		.loc 1 433 9 is_stmt 0 view .LVU391
 1122 005a 0923     		movs	r3, #9
 1123 005c ADF80630 		strh	r3, [sp, #6]	@ movhi
 434:Middlewares/ST/STM32_USB_Host_Library/Core/Src/usbh_ctlreq.c **** 
 1124              		.loc 1 434 5 is_stmt 1 view .LVU392
 1125              	.LVL80:
 436:Middlewares/ST/STM32_USB_Host_Library/Core/Src/usbh_ctlreq.c ****     {
 1126              		.loc 1 436 5 view .LVU393
 410:Middlewares/ST/STM32_USB_Host_Library/Core/Src/usbh_ctlreq.c ****   uint8_t                      ep_ix = 0U;
 1127              		.loc 1 410 32 is_stmt 0 view .LVU394
 1128 0060 0026     		movs	r6, #0
 405:Middlewares/ST/STM32_USB_Host_Library/Core/Src/usbh_ctlreq.c ****   USBH_InterfaceDescTypeDef    *pif ;
 1129              		.loc 1 405 32 view .LVU395
 1130 0062 3746     		mov	r7, r6
 1131              	.LVL81:
 1132              	.L89:
 436:Middlewares/ST/STM32_USB_Host_Library/Core/Src/usbh_ctlreq.c ****     {
 1133              		.loc 1 436 11 is_stmt 1 view .LVU396
 1134 0064 012E     		cmp	r6, #1
 1135 0066 70D8     		bhi	.L97
 436:Middlewares/ST/STM32_USB_Host_Library/Core/Src/usbh_ctlreq.c ****     {
 1136              		.loc 1 436 64 is_stmt 0 discriminator 1 view .LVU397
 1137 0068 B5F83A23 		ldrh	r2, [r5, #826]
 436:Middlewares/ST/STM32_USB_Host_Library/Core/Src/usbh_ctlreq.c ****     {
 1138              		.loc 1 436 54 discriminator 1 view .LVU398
 1139 006c BDF80630 		ldrh	r3, [sp, #6]
 436:Middlewares/ST/STM32_USB_Host_Library/Core/Src/usbh_ctlreq.c ****     {
 1140              		.loc 1 436 46 discriminator 1 view .LVU399
 1141 0070 9A42     		cmp	r2, r3
 1142 0072 6AD9     		bls	.L97
 438:Middlewares/ST/STM32_USB_Host_Library/Core/Src/usbh_ctlreq.c ****       if (pdesc->bDescriptorType == USB_DESC_TYPE_INTERFACE)
 1143              		.loc 1 438 7 is_stmt 1 view .LVU400
 438:Middlewares/ST/STM32_USB_Host_Library/Core/Src/usbh_ctlreq.c ****       if (pdesc->bDescriptorType == USB_DESC_TYPE_INTERFACE)
 1144              		.loc 1 438 15 is_stmt 0 view .LVU401
 1145 0074 0DF10601 		add	r1, sp, #6
 1146 0078 2046     		mov	r0, r4
ARM GAS  /tmp/ccXjZKHH.s 			page 45


 1147 007a FFF7FEFF 		bl	USBH_GetNextDesc
 1148              	.LVL82:
 1149 007e 0446     		mov	r4, r0
 1150              	.LVL83:
 439:Middlewares/ST/STM32_USB_Host_Library/Core/Src/usbh_ctlreq.c ****       {
 1151              		.loc 1 439 7 is_stmt 1 view .LVU402
 439:Middlewares/ST/STM32_USB_Host_Library/Core/Src/usbh_ctlreq.c ****       {
 1152              		.loc 1 439 16 is_stmt 0 view .LVU403
 1153 0080 4378     		ldrb	r3, [r0, #1]	@ zero_extendqisi2
 439:Middlewares/ST/STM32_USB_Host_Library/Core/Src/usbh_ctlreq.c ****       {
 1154              		.loc 1 439 10 view .LVU404
 1155 0082 042B     		cmp	r3, #4
 1156 0084 EED1     		bne	.L89
 442:Middlewares/ST/STM32_USB_Host_Library/Core/Src/usbh_ctlreq.c ****         {
 1157              		.loc 1 442 9 is_stmt 1 view .LVU405
 442:Middlewares/ST/STM32_USB_Host_Library/Core/Src/usbh_ctlreq.c ****         {
 1158              		.loc 1 442 18 is_stmt 0 view .LVU406
 1159 0086 0378     		ldrb	r3, [r0]	@ zero_extendqisi2
 442:Middlewares/ST/STM32_USB_Host_Library/Core/Src/usbh_ctlreq.c ****         {
 1160              		.loc 1 442 12 view .LVU407
 1161 0088 092B     		cmp	r3, #9
 1162 008a 01D0     		beq	.L90
 444:Middlewares/ST/STM32_USB_Host_Library/Core/Src/usbh_ctlreq.c ****         }
 1163              		.loc 1 444 11 is_stmt 1 view .LVU408
 444:Middlewares/ST/STM32_USB_Host_Library/Core/Src/usbh_ctlreq.c ****         }
 1164              		.loc 1 444 26 is_stmt 0 view .LVU409
 1165 008c 0923     		movs	r3, #9
 1166 008e 0370     		strb	r3, [r0]
 1167              	.L90:
 447:Middlewares/ST/STM32_USB_Host_Library/Core/Src/usbh_ctlreq.c ****         USBH_ParseInterfaceDesc(pif, (uint8_t *)(void *)pdesc);
 1168              		.loc 1 447 9 is_stmt 1 view .LVU410
 447:Middlewares/ST/STM32_USB_Host_Library/Core/Src/usbh_ctlreq.c ****         USBH_ParseInterfaceDesc(pif, (uint8_t *)(void *)pdesc);
 1169              		.loc 1 447 34 is_stmt 0 view .LVU411
 1170 0090 B146     		mov	r9, r6
 447:Middlewares/ST/STM32_USB_Host_Library/Core/Src/usbh_ctlreq.c ****         USBH_ParseInterfaceDesc(pif, (uint8_t *)(void *)pdesc);
 1171              		.loc 1 447 13 view .LVU412
 1172 0092 05F54E70 		add	r0, r5, #824
 1173              	.LVL84:
 447:Middlewares/ST/STM32_USB_Host_Library/Core/Src/usbh_ctlreq.c ****         USBH_ParseInterfaceDesc(pif, (uint8_t *)(void *)pdesc);
 1174              		.loc 1 447 13 view .LVU413
 1175 0096 1A23     		movs	r3, #26
 1176 0098 03FB06F3 		mul	r3, r3, r6
 1177 009c 0833     		adds	r3, r3, #8
 1178 009e 1844     		add	r0, r0, r3
 1179              	.LVL85:
 448:Middlewares/ST/STM32_USB_Host_Library/Core/Src/usbh_ctlreq.c **** 
 1180              		.loc 1 448 9 is_stmt 1 view .LVU414
 1181 00a0 2146     		mov	r1, r4
 1182 00a2 0230     		adds	r0, r0, #2
 1183              	.LVL86:
 448:Middlewares/ST/STM32_USB_Host_Library/Core/Src/usbh_ctlreq.c **** 
 1184              		.loc 1 448 9 is_stmt 0 view .LVU415
 1185 00a4 FFF7FEFF 		bl	USBH_ParseInterfaceDesc
 1186              	.LVL87:
 450:Middlewares/ST/STM32_USB_Host_Library/Core/Src/usbh_ctlreq.c ****         pep = (USBH_EpDescTypeDef *)NULL;
 1187              		.loc 1 450 9 is_stmt 1 view .LVU416
 451:Middlewares/ST/STM32_USB_Host_Library/Core/Src/usbh_ctlreq.c **** 
ARM GAS  /tmp/ccXjZKHH.s 			page 46


 1188              		.loc 1 451 9 view .LVU417
 453:Middlewares/ST/STM32_USB_Host_Library/Core/Src/usbh_ctlreq.c ****         {
 1189              		.loc 1 453 9 view .LVU418
 450:Middlewares/ST/STM32_USB_Host_Library/Core/Src/usbh_ctlreq.c ****         pep = (USBH_EpDescTypeDef *)NULL;
 1190              		.loc 1 450 15 is_stmt 0 view .LVU419
 1191 00a8 4FF00008 		mov	r8, #0
 453:Middlewares/ST/STM32_USB_Host_Library/Core/Src/usbh_ctlreq.c ****         {
 1192              		.loc 1 453 15 view .LVU420
 1193 00ac 27E0     		b	.L91
 1194              	.LVL88:
 1195              	.L103:
 460:Middlewares/ST/STM32_USB_Host_Library/Core/Src/usbh_ctlreq.c ****             {
 1196              		.loc 1 460 56 discriminator 1 view .LVU421
 1197 00ae 1A23     		movs	r3, #26
 1198              	.LVL89:
 460:Middlewares/ST/STM32_USB_Host_Library/Core/Src/usbh_ctlreq.c ****             {
 1199              		.loc 1 460 56 discriminator 1 view .LVU422
 1200 00b0 03FB0953 		mla	r3, r3, r9, r5
 1201              	.LVL90:
 460:Middlewares/ST/STM32_USB_Host_Library/Core/Src/usbh_ctlreq.c ****             {
 1202              		.loc 1 460 56 discriminator 1 view .LVU423
 1203 00b4 93F84833 		ldrb	r3, [r3, #840]	@ zero_extendqisi2
 460:Middlewares/ST/STM32_USB_Host_Library/Core/Src/usbh_ctlreq.c ****             {
 1204              		.loc 1 460 49 discriminator 1 view .LVU424
 1205 00b8 022B     		cmp	r3, #2
 1206 00ba 3DD1     		bne	.L93
 463:Middlewares/ST/STM32_USB_Host_Library/Core/Src/usbh_ctlreq.c ****               {
 1207              		.loc 1 463 15 is_stmt 1 view .LVU425
 463:Middlewares/ST/STM32_USB_Host_Library/Core/Src/usbh_ctlreq.c ****               {
 1208              		.loc 1 463 23 is_stmt 0 view .LVU426
 1209 00bc 1A23     		movs	r3, #26
 1210              	.LVL91:
 463:Middlewares/ST/STM32_USB_Host_Library/Core/Src/usbh_ctlreq.c ****               {
 1211              		.loc 1 463 23 view .LVU427
 1212 00be 03FB0953 		mla	r3, r3, r9, r5
 1213              	.LVL92:
 463:Middlewares/ST/STM32_USB_Host_Library/Core/Src/usbh_ctlreq.c ****               {
 1214              		.loc 1 463 23 view .LVU428
 1215 00c2 93F84933 		ldrb	r3, [r3, #841]	@ zero_extendqisi2
 463:Middlewares/ST/STM32_USB_Host_Library/Core/Src/usbh_ctlreq.c ****               {
 1216              		.loc 1 463 18 view .LVU429
 1217 00c6 3BB9     		cbnz	r3, .L94
 463:Middlewares/ST/STM32_USB_Host_Library/Core/Src/usbh_ctlreq.c ****               {
 1218              		.loc 1 463 63 discriminator 1 view .LVU430
 1219 00c8 0378     		ldrb	r3, [r0]	@ zero_extendqisi2
 463:Middlewares/ST/STM32_USB_Host_Library/Core/Src/usbh_ctlreq.c ****               {
 1220              		.loc 1 463 54 discriminator 1 view .LVU431
 1221 00ca 092B     		cmp	r3, #9
 1222 00cc 04D0     		beq	.L94
 465:Middlewares/ST/STM32_USB_Host_Library/Core/Src/usbh_ctlreq.c ****               }
 1223              		.loc 1 465 17 is_stmt 1 view .LVU432
 465:Middlewares/ST/STM32_USB_Host_Library/Core/Src/usbh_ctlreq.c ****               }
 1224              		.loc 1 465 32 is_stmt 0 view .LVU433
 1225 00ce 0923     		movs	r3, #9
 1226 00d0 0370     		strb	r3, [r0]
 1227 00d2 01E0     		b	.L94
 1228              	.L104:
ARM GAS  /tmp/ccXjZKHH.s 			page 47


 472:Middlewares/ST/STM32_USB_Host_Library/Core/Src/usbh_ctlreq.c ****             }
 1229              		.loc 1 472 15 is_stmt 1 view .LVU434
 472:Middlewares/ST/STM32_USB_Host_Library/Core/Src/usbh_ctlreq.c ****             }
 1230              		.loc 1 472 30 is_stmt 0 view .LVU435
 1231 00d4 0723     		movs	r3, #7
 1232 00d6 2370     		strb	r3, [r4]
 1233              	.L94:
 477:Middlewares/ST/STM32_USB_Host_Library/Core/Src/usbh_ctlreq.c **** 
 1234              		.loc 1 477 13 is_stmt 1 view .LVU436
 479:Middlewares/ST/STM32_USB_Host_Library/Core/Src/usbh_ctlreq.c **** 
 1235              		.loc 1 479 13 view .LVU437
 479:Middlewares/ST/STM32_USB_Host_Library/Core/Src/usbh_ctlreq.c **** 
 1236              		.loc 1 479 17 is_stmt 0 view .LVU438
 1237 00d8 05F54E73 		add	r3, r5, #824
 1238 00dc 08F10108 		add	r8, r8, #1
 1239              	.LVL93:
 479:Middlewares/ST/STM32_USB_Host_Library/Core/Src/usbh_ctlreq.c **** 
 1240              		.loc 1 479 17 view .LVU439
 1241 00e0 1A21     		movs	r1, #26
 1242              	.LVL94:
 479:Middlewares/ST/STM32_USB_Host_Library/Core/Src/usbh_ctlreq.c **** 
 1243              		.loc 1 479 17 view .LVU440
 1244 00e2 01FB09F1 		mul	r1, r1, r9
 1245              	.LVL95:
 479:Middlewares/ST/STM32_USB_Host_Library/Core/Src/usbh_ctlreq.c **** 
 1246              		.loc 1 479 17 view .LVU441
 1247 00e6 01EBC801 		add	r1, r1, r8, lsl #3
 1248 00ea 0831     		adds	r1, r1, #8
 1249 00ec 1944     		add	r1, r1, r3
 1250              	.LVL96:
 481:Middlewares/ST/STM32_USB_Host_Library/Core/Src/usbh_ctlreq.c **** 
 1251              		.loc 1 481 13 is_stmt 1 view .LVU442
 481:Middlewares/ST/STM32_USB_Host_Library/Core/Src/usbh_ctlreq.c **** 
 1252              		.loc 1 481 22 is_stmt 0 view .LVU443
 1253 00ee 2246     		mov	r2, r4
 1254 00f0 0431     		adds	r1, r1, #4
 1255              	.LVL97:
 481:Middlewares/ST/STM32_USB_Host_Library/Core/Src/usbh_ctlreq.c **** 
 1256              		.loc 1 481 22 view .LVU444
 1257 00f2 2846     		mov	r0, r5
 1258              	.LVL98:
 481:Middlewares/ST/STM32_USB_Host_Library/Core/Src/usbh_ctlreq.c **** 
 1259              		.loc 1 481 22 view .LVU445
 1260 00f4 FFF7FEFF 		bl	USBH_ParseEPDesc
 1261              	.LVL99:
 481:Middlewares/ST/STM32_USB_Host_Library/Core/Src/usbh_ctlreq.c **** 
 1262              		.loc 1 481 22 view .LVU446
 1263 00f8 0746     		mov	r7, r0
 1264              	.LVL100:
 483:Middlewares/ST/STM32_USB_Host_Library/Core/Src/usbh_ctlreq.c ****           }
 1265              		.loc 1 483 13 is_stmt 1 view .LVU447
 483:Middlewares/ST/STM32_USB_Host_Library/Core/Src/usbh_ctlreq.c ****           }
 1266              		.loc 1 483 18 is_stmt 0 view .LVU448
 1267 00fa 5FFA88F8 		uxtb	r8, r8
 1268              	.LVL101:
 1269              	.L91:
 453:Middlewares/ST/STM32_USB_Host_Library/Core/Src/usbh_ctlreq.c ****         {
ARM GAS  /tmp/ccXjZKHH.s 			page 48


 1270              		.loc 1 453 15 is_stmt 1 view .LVU449
 453:Middlewares/ST/STM32_USB_Host_Library/Core/Src/usbh_ctlreq.c ****         {
 1271              		.loc 1 453 28 is_stmt 0 view .LVU450
 1272 00fe 1A23     		movs	r3, #26
 1273              	.LVL102:
 453:Middlewares/ST/STM32_USB_Host_Library/Core/Src/usbh_ctlreq.c ****         {
 1274              		.loc 1 453 28 view .LVU451
 1275 0100 03FB0953 		mla	r3, r3, r9, r5
 1276              	.LVL103:
 453:Middlewares/ST/STM32_USB_Host_Library/Core/Src/usbh_ctlreq.c ****         {
 1277              		.loc 1 453 28 view .LVU452
 1278 0104 93F84633 		ldrb	r3, [r3, #838]	@ zero_extendqisi2
 453:Middlewares/ST/STM32_USB_Host_Library/Core/Src/usbh_ctlreq.c ****         {
 1279              		.loc 1 453 15 view .LVU453
 1280 0108 4345     		cmp	r3, r8
 1281 010a 19D9     		bls	.L95
 453:Middlewares/ST/STM32_USB_Host_Library/Core/Src/usbh_ctlreq.c ****         {
 1282              		.loc 1 453 63 discriminator 1 view .LVU454
 1283 010c B5F83A13 		ldrh	r1, [r5, #826]
 453:Middlewares/ST/STM32_USB_Host_Library/Core/Src/usbh_ctlreq.c ****         {
 1284              		.loc 1 453 53 discriminator 1 view .LVU455
 1285 0110 BDF80620 		ldrh	r2, [sp, #6]
 453:Middlewares/ST/STM32_USB_Host_Library/Core/Src/usbh_ctlreq.c ****         {
 1286              		.loc 1 453 45 discriminator 1 view .LVU456
 1287 0114 9142     		cmp	r1, r2
 1288 0116 13D9     		bls	.L95
 455:Middlewares/ST/STM32_USB_Host_Library/Core/Src/usbh_ctlreq.c **** 
 1289              		.loc 1 455 11 is_stmt 1 view .LVU457
 455:Middlewares/ST/STM32_USB_Host_Library/Core/Src/usbh_ctlreq.c **** 
 1290              		.loc 1 455 19 is_stmt 0 view .LVU458
 1291 0118 0DF10601 		add	r1, sp, #6
 1292 011c 2046     		mov	r0, r4
 1293 011e FFF7FEFF 		bl	USBH_GetNextDesc
 1294              	.LVL104:
 1295 0122 0446     		mov	r4, r0
 1296              	.LVL105:
 457:Middlewares/ST/STM32_USB_Host_Library/Core/Src/usbh_ctlreq.c ****           {
 1297              		.loc 1 457 11 is_stmt 1 view .LVU459
 457:Middlewares/ST/STM32_USB_Host_Library/Core/Src/usbh_ctlreq.c ****           {
 1298              		.loc 1 457 20 is_stmt 0 view .LVU460
 1299 0124 4378     		ldrb	r3, [r0, #1]	@ zero_extendqisi2
 457:Middlewares/ST/STM32_USB_Host_Library/Core/Src/usbh_ctlreq.c ****           {
 1300              		.loc 1 457 14 view .LVU461
 1301 0126 052B     		cmp	r3, #5
 1302 0128 E9D1     		bne	.L91
 460:Middlewares/ST/STM32_USB_Host_Library/Core/Src/usbh_ctlreq.c ****             {
 1303              		.loc 1 460 13 is_stmt 1 view .LVU462
 460:Middlewares/ST/STM32_USB_Host_Library/Core/Src/usbh_ctlreq.c ****             {
 1304              		.loc 1 460 21 is_stmt 0 view .LVU463
 1305 012a 1A23     		movs	r3, #26
 1306              	.LVL106:
 460:Middlewares/ST/STM32_USB_Host_Library/Core/Src/usbh_ctlreq.c ****             {
 1307              		.loc 1 460 21 view .LVU464
 1308 012c 03FB0953 		mla	r3, r3, r9, r5
 1309              	.LVL107:
 460:Middlewares/ST/STM32_USB_Host_Library/Core/Src/usbh_ctlreq.c ****             {
 1310              		.loc 1 460 21 view .LVU465
ARM GAS  /tmp/ccXjZKHH.s 			page 49


 1311 0130 93F84733 		ldrb	r3, [r3, #839]	@ zero_extendqisi2
 460:Middlewares/ST/STM32_USB_Host_Library/Core/Src/usbh_ctlreq.c ****             {
 1312              		.loc 1 460 16 view .LVU466
 1313 0134 012B     		cmp	r3, #1
 1314 0136 BAD0     		beq	.L103
 1315              	.L93:
 470:Middlewares/ST/STM32_USB_Host_Library/Core/Src/usbh_ctlreq.c ****             {
 1316              		.loc 1 470 18 is_stmt 1 view .LVU467
 470:Middlewares/ST/STM32_USB_Host_Library/Core/Src/usbh_ctlreq.c ****             {
 1317              		.loc 1 470 27 is_stmt 0 view .LVU468
 1318 0138 2378     		ldrb	r3, [r4]	@ zero_extendqisi2
 470:Middlewares/ST/STM32_USB_Host_Library/Core/Src/usbh_ctlreq.c ****             {
 1319              		.loc 1 470 21 view .LVU469
 1320 013a 072B     		cmp	r3, #7
 1321 013c CAD1     		bne	.L104
 1322 013e CBE7     		b	.L94
 1323              	.LVL108:
 1324              	.L95:
 488:Middlewares/ST/STM32_USB_Host_Library/Core/Src/usbh_ctlreq.c ****         {
 1325              		.loc 1 488 9 is_stmt 1 view .LVU470
 488:Middlewares/ST/STM32_USB_Host_Library/Core/Src/usbh_ctlreq.c ****         {
 1326              		.loc 1 488 12 is_stmt 0 view .LVU471
 1327 0140 4345     		cmp	r3, r8
 1328 0142 10D8     		bhi	.L100
 493:Middlewares/ST/STM32_USB_Host_Library/Core/Src/usbh_ctlreq.c ****       }
 1329              		.loc 1 493 9 is_stmt 1 view .LVU472
 493:Middlewares/ST/STM32_USB_Host_Library/Core/Src/usbh_ctlreq.c ****       }
 1330              		.loc 1 493 14 is_stmt 0 view .LVU473
 1331 0144 0136     		adds	r6, r6, #1
 1332              	.LVL109:
 493:Middlewares/ST/STM32_USB_Host_Library/Core/Src/usbh_ctlreq.c ****       }
 1333              		.loc 1 493 14 view .LVU474
 1334 0146 F6B2     		uxtb	r6, r6
 1335              	.LVL110:
 493:Middlewares/ST/STM32_USB_Host_Library/Core/Src/usbh_ctlreq.c ****       }
 1336              		.loc 1 493 14 view .LVU475
 1337 0148 8CE7     		b	.L89
 1338              	.LVL111:
 1339              	.L97:
 498:Middlewares/ST/STM32_USB_Host_Library/Core/Src/usbh_ctlreq.c ****     {
 1340              		.loc 1 498 5 is_stmt 1 view .LVU476
 498:Middlewares/ST/STM32_USB_Host_Library/Core/Src/usbh_ctlreq.c ****     {
 1341              		.loc 1 498 17 is_stmt 0 view .LVU477
 1342 014a 95F83C33 		ldrb	r3, [r5, #828]	@ zero_extendqisi2
 1343 014e 022B     		cmp	r3, #2
 1344 0150 28BF     		it	cs
 1345 0152 0223     		movcs	r3, #2
 498:Middlewares/ST/STM32_USB_Host_Library/Core/Src/usbh_ctlreq.c ****     {
 1346              		.loc 1 498 8 view .LVU478
 1347 0154 B342     		cmp	r3, r6
 1348 0156 02D9     		bls	.L87
 500:Middlewares/ST/STM32_USB_Host_Library/Core/Src/usbh_ctlreq.c ****     }
 1349              		.loc 1 500 14 view .LVU479
 1350 0158 0327     		movs	r7, #3
 1351              	.LVL112:
 500:Middlewares/ST/STM32_USB_Host_Library/Core/Src/usbh_ctlreq.c ****     }
 1352              		.loc 1 500 14 view .LVU480
ARM GAS  /tmp/ccXjZKHH.s 			page 50


 1353 015a 00E0     		b	.L87
 1354              	.LVL113:
 1355              	.L99:
 405:Middlewares/ST/STM32_USB_Host_Library/Core/Src/usbh_ctlreq.c ****   USBH_InterfaceDescTypeDef    *pif ;
 1356              		.loc 1 405 32 view .LVU481
 1357 015c 0027     		movs	r7, #0
 1358              	.LVL114:
 1359              	.L87:
 505:Middlewares/ST/STM32_USB_Host_Library/Core/Src/usbh_ctlreq.c **** 
 1360              		.loc 1 505 1 view .LVU482
 1361 015e 3846     		mov	r0, r7
 1362 0160 03B0     		add	sp, sp, #12
 1363              	.LCFI13:
 1364              		.cfi_remember_state
 1365              		.cfi_def_cfa_offset 28
 1366              		@ sp needed
 1367 0162 BDE8F083 		pop	{r4, r5, r6, r7, r8, r9, pc}
 1368              	.LVL115:
 1369              	.L100:
 1370              	.LCFI14:
 1371              		.cfi_restore_state
 490:Middlewares/ST/STM32_USB_Host_Library/Core/Src/usbh_ctlreq.c ****         }
 1372              		.loc 1 490 18 view .LVU483
 1373 0166 0327     		movs	r7, #3
 1374              	.LVL116:
 490:Middlewares/ST/STM32_USB_Host_Library/Core/Src/usbh_ctlreq.c ****         }
 1375              		.loc 1 490 18 view .LVU484
 1376 0168 F9E7     		b	.L87
 1377              		.cfi_endproc
 1378              	.LFE143:
 1380              		.section	.text.USBH_CtlReq,"ax",%progbits
 1381              		.align	1
 1382              		.global	USBH_CtlReq
 1383              		.syntax unified
 1384              		.thumb
 1385              		.thumb_func
 1386              		.fpu fpv4-sp-d16
 1388              	USBH_CtlReq:
 1389              	.LVL117:
 1390              	.LFB148:
 684:Middlewares/ST/STM32_USB_Host_Library/Core/Src/usbh_ctlreq.c ****   USBH_StatusTypeDef status;
 1391              		.loc 1 684 1 is_stmt 1 view -0
 1392              		.cfi_startproc
 1393              		@ args = 0, pretend = 0, frame = 0
 1394              		@ frame_needed = 0, uses_anonymous_args = 0
 684:Middlewares/ST/STM32_USB_Host_Library/Core/Src/usbh_ctlreq.c ****   USBH_StatusTypeDef status;
 1395              		.loc 1 684 1 is_stmt 0 view .LVU486
 1396 0000 10B5     		push	{r4, lr}
 1397              	.LCFI15:
 1398              		.cfi_def_cfa_offset 8
 1399              		.cfi_offset 4, -8
 1400              		.cfi_offset 14, -4
 1401 0002 0446     		mov	r4, r0
 685:Middlewares/ST/STM32_USB_Host_Library/Core/Src/usbh_ctlreq.c ****   status = USBH_BUSY;
 1402              		.loc 1 685 3 is_stmt 1 view .LVU487
 686:Middlewares/ST/STM32_USB_Host_Library/Core/Src/usbh_ctlreq.c **** 
 1403              		.loc 1 686 3 view .LVU488
ARM GAS  /tmp/ccXjZKHH.s 			page 51


 1404              	.LVL118:
 688:Middlewares/ST/STM32_USB_Host_Library/Core/Src/usbh_ctlreq.c ****   {
 1405              		.loc 1 688 3 view .LVU489
 688:Middlewares/ST/STM32_USB_Host_Library/Core/Src/usbh_ctlreq.c ****   {
 1406              		.loc 1 688 16 is_stmt 0 view .LVU490
 1407 0004 8078     		ldrb	r0, [r0, #2]	@ zero_extendqisi2
 1408              	.LVL119:
 688:Middlewares/ST/STM32_USB_Host_Library/Core/Src/usbh_ctlreq.c ****   {
 1409              		.loc 1 688 3 view .LVU491
 1410 0006 0128     		cmp	r0, #1
 1411 0008 03D0     		beq	.L106
 1412 000a 0228     		cmp	r0, #2
 1413 000c 08D0     		beq	.L107
 1414 000e 0120     		movs	r0, #1
 1415              	.LVL120:
 1416              	.L108:
 738:Middlewares/ST/STM32_USB_Host_Library/Core/Src/usbh_ctlreq.c **** }
 1417              		.loc 1 738 3 is_stmt 1 view .LVU492
 739:Middlewares/ST/STM32_USB_Host_Library/Core/Src/usbh_ctlreq.c **** 
 1418              		.loc 1 739 1 is_stmt 0 view .LVU493
 1419 0010 10BD     		pop	{r4, pc}
 1420              	.LVL121:
 1421              	.L106:
 692:Middlewares/ST/STM32_USB_Host_Library/Core/Src/usbh_ctlreq.c ****       phost->Control.length = length;
 1422              		.loc 1 692 7 is_stmt 1 view .LVU494
 692:Middlewares/ST/STM32_USB_Host_Library/Core/Src/usbh_ctlreq.c ****       phost->Control.length = length;
 1423              		.loc 1 692 27 is_stmt 0 view .LVU495
 1424 0012 A160     		str	r1, [r4, #8]
 693:Middlewares/ST/STM32_USB_Host_Library/Core/Src/usbh_ctlreq.c ****       phost->Control.state = CTRL_SETUP;
 1425              		.loc 1 693 7 is_stmt 1 view .LVU496
 693:Middlewares/ST/STM32_USB_Host_Library/Core/Src/usbh_ctlreq.c ****       phost->Control.state = CTRL_SETUP;
 1426              		.loc 1 693 29 is_stmt 0 view .LVU497
 1427 0014 A281     		strh	r2, [r4, #12]	@ movhi
 694:Middlewares/ST/STM32_USB_Host_Library/Core/Src/usbh_ctlreq.c ****       phost->RequestState = CMD_WAIT;
 1428              		.loc 1 694 7 is_stmt 1 view .LVU498
 694:Middlewares/ST/STM32_USB_Host_Library/Core/Src/usbh_ctlreq.c ****       phost->RequestState = CMD_WAIT;
 1429              		.loc 1 694 28 is_stmt 0 view .LVU499
 1430 0016 0123     		movs	r3, #1
 1431 0018 2376     		strb	r3, [r4, #24]
 695:Middlewares/ST/STM32_USB_Host_Library/Core/Src/usbh_ctlreq.c ****       status = USBH_BUSY;
 1432              		.loc 1 695 7 is_stmt 1 view .LVU500
 695:Middlewares/ST/STM32_USB_Host_Library/Core/Src/usbh_ctlreq.c ****       status = USBH_BUSY;
 1433              		.loc 1 695 27 is_stmt 0 view .LVU501
 1434 001a 0223     		movs	r3, #2
 1435 001c A370     		strb	r3, [r4, #2]
 696:Middlewares/ST/STM32_USB_Host_Library/Core/Src/usbh_ctlreq.c **** 
 1436              		.loc 1 696 7 is_stmt 1 view .LVU502
 706:Middlewares/ST/STM32_USB_Host_Library/Core/Src/usbh_ctlreq.c **** 
 1437              		.loc 1 706 7 view .LVU503
 1438 001e F7E7     		b	.L108
 1439              	.L107:
 709:Middlewares/ST/STM32_USB_Host_Library/Core/Src/usbh_ctlreq.c ****       if ((status == USBH_OK) || (status == USBH_NOT_SUPPORTED))
 1440              		.loc 1 709 7 view .LVU504
 709:Middlewares/ST/STM32_USB_Host_Library/Core/Src/usbh_ctlreq.c ****       if ((status == USBH_OK) || (status == USBH_NOT_SUPPORTED))
 1441              		.loc 1 709 16 is_stmt 0 view .LVU505
 1442 0020 2046     		mov	r0, r4
 1443 0022 FFF7FEFF 		bl	USBH_HandleControl
ARM GAS  /tmp/ccXjZKHH.s 			page 52


 1444              	.LVL122:
 710:Middlewares/ST/STM32_USB_Host_Library/Core/Src/usbh_ctlreq.c ****       {
 1445              		.loc 1 710 7 is_stmt 1 view .LVU506
 710:Middlewares/ST/STM32_USB_Host_Library/Core/Src/usbh_ctlreq.c ****       {
 1446              		.loc 1 710 10 is_stmt 0 view .LVU507
 1447 0026 30B1     		cbz	r0, .L109
 710:Middlewares/ST/STM32_USB_Host_Library/Core/Src/usbh_ctlreq.c ****       {
 1448              		.loc 1 710 31 discriminator 1 view .LVU508
 1449 0028 0328     		cmp	r0, #3
 1450 002a 04D0     		beq	.L109
 716:Middlewares/ST/STM32_USB_Host_Library/Core/Src/usbh_ctlreq.c ****       {
 1451              		.loc 1 716 12 is_stmt 1 view .LVU509
 716:Middlewares/ST/STM32_USB_Host_Library/Core/Src/usbh_ctlreq.c ****       {
 1452              		.loc 1 716 15 is_stmt 0 view .LVU510
 1453 002c 0228     		cmp	r0, #2
 1454 002e EFD1     		bne	.L108
 719:Middlewares/ST/STM32_USB_Host_Library/Core/Src/usbh_ctlreq.c ****       }
 1455              		.loc 1 719 9 is_stmt 1 view .LVU511
 719:Middlewares/ST/STM32_USB_Host_Library/Core/Src/usbh_ctlreq.c ****       }
 1456              		.loc 1 719 29 is_stmt 0 view .LVU512
 1457 0030 0123     		movs	r3, #1
 1458 0032 A370     		strb	r3, [r4, #2]
 1459 0034 ECE7     		b	.L108
 1460              	.L109:
 713:Middlewares/ST/STM32_USB_Host_Library/Core/Src/usbh_ctlreq.c ****         phost->Control.state = CTRL_IDLE;
 1461              		.loc 1 713 9 is_stmt 1 view .LVU513
 713:Middlewares/ST/STM32_USB_Host_Library/Core/Src/usbh_ctlreq.c ****         phost->Control.state = CTRL_IDLE;
 1462              		.loc 1 713 29 is_stmt 0 view .LVU514
 1463 0036 0123     		movs	r3, #1
 1464 0038 A370     		strb	r3, [r4, #2]
 714:Middlewares/ST/STM32_USB_Host_Library/Core/Src/usbh_ctlreq.c ****       }
 1465              		.loc 1 714 9 is_stmt 1 view .LVU515
 714:Middlewares/ST/STM32_USB_Host_Library/Core/Src/usbh_ctlreq.c ****       }
 1466              		.loc 1 714 30 is_stmt 0 view .LVU516
 1467 003a 0023     		movs	r3, #0
 1468 003c 2376     		strb	r3, [r4, #24]
 1469 003e E7E7     		b	.L108
 1470              		.cfi_endproc
 1471              	.LFE148:
 1473              		.section	.text.USBH_GetDescriptor,"ax",%progbits
 1474              		.align	1
 1475              		.global	USBH_GetDescriptor
 1476              		.syntax unified
 1477              		.thumb
 1478              		.thumb_func
 1479              		.fpu fpv4-sp-d16
 1481              	USBH_GetDescriptor:
 1482              	.LVL123:
 1483              	.LFB136:
 199:Middlewares/ST/STM32_USB_Host_Library/Core/Src/usbh_ctlreq.c ****   if (phost->RequestState == CMD_SEND)
 1484              		.loc 1 199 1 is_stmt 1 view -0
 1485              		.cfi_startproc
 1486              		@ args = 4, pretend = 0, frame = 0
 1487              		@ frame_needed = 0, uses_anonymous_args = 0
 199:Middlewares/ST/STM32_USB_Host_Library/Core/Src/usbh_ctlreq.c ****   if (phost->RequestState == CMD_SEND)
 1488              		.loc 1 199 1 is_stmt 0 view .LVU518
 1489 0000 38B5     		push	{r3, r4, r5, lr}
ARM GAS  /tmp/ccXjZKHH.s 			page 53


 1490              	.LCFI16:
 1491              		.cfi_def_cfa_offset 16
 1492              		.cfi_offset 3, -16
 1493              		.cfi_offset 4, -12
 1494              		.cfi_offset 5, -8
 1495              		.cfi_offset 14, -4
 1496 0002 0D46     		mov	r5, r1
 1497 0004 1446     		mov	r4, r2
 1498 0006 1946     		mov	r1, r3
 1499              	.LVL124:
 199:Middlewares/ST/STM32_USB_Host_Library/Core/Src/usbh_ctlreq.c ****   if (phost->RequestState == CMD_SEND)
 1500              		.loc 1 199 1 view .LVU519
 1501 0008 BDF81020 		ldrh	r2, [sp, #16]
 1502              	.LVL125:
 200:Middlewares/ST/STM32_USB_Host_Library/Core/Src/usbh_ctlreq.c ****   {
 1503              		.loc 1 200 3 is_stmt 1 view .LVU520
 200:Middlewares/ST/STM32_USB_Host_Library/Core/Src/usbh_ctlreq.c ****   {
 1504              		.loc 1 200 12 is_stmt 0 view .LVU521
 1505 000c 8378     		ldrb	r3, [r0, #2]	@ zero_extendqisi2
 1506              	.LVL126:
 200:Middlewares/ST/STM32_USB_Host_Library/Core/Src/usbh_ctlreq.c ****   {
 1507              		.loc 1 200 6 view .LVU522
 1508 000e 012B     		cmp	r3, #1
 1509 0010 02D0     		beq	.L117
 1510              	.L113:
 217:Middlewares/ST/STM32_USB_Host_Library/Core/Src/usbh_ctlreq.c **** }
 1511              		.loc 1 217 3 is_stmt 1 view .LVU523
 217:Middlewares/ST/STM32_USB_Host_Library/Core/Src/usbh_ctlreq.c **** }
 1512              		.loc 1 217 10 is_stmt 0 view .LVU524
 1513 0012 FFF7FEFF 		bl	USBH_CtlReq
 1514              	.LVL127:
 218:Middlewares/ST/STM32_USB_Host_Library/Core/Src/usbh_ctlreq.c **** 
 1515              		.loc 1 218 1 view .LVU525
 1516 0016 38BD     		pop	{r3, r4, r5, pc}
 1517              	.LVL128:
 1518              	.L117:
 202:Middlewares/ST/STM32_USB_Host_Library/Core/Src/usbh_ctlreq.c ****     phost->Control.setup.b.bRequest = USB_REQ_GET_DESCRIPTOR;
 1519              		.loc 1 202 5 is_stmt 1 view .LVU526
 202:Middlewares/ST/STM32_USB_Host_Library/Core/Src/usbh_ctlreq.c ****     phost->Control.setup.b.bRequest = USB_REQ_GET_DESCRIPTOR;
 1520              		.loc 1 202 42 is_stmt 0 view .LVU527
 1521 0018 65F07F05 		orn	r5, r5, #127
 1522 001c 0574     		strb	r5, [r0, #16]
 203:Middlewares/ST/STM32_USB_Host_Library/Core/Src/usbh_ctlreq.c ****     phost->Control.setup.b.wValue.w = value_idx;
 1523              		.loc 1 203 5 is_stmt 1 view .LVU528
 203:Middlewares/ST/STM32_USB_Host_Library/Core/Src/usbh_ctlreq.c ****     phost->Control.setup.b.wValue.w = value_idx;
 1524              		.loc 1 203 37 is_stmt 0 view .LVU529
 1525 001e 0623     		movs	r3, #6
 1526 0020 4374     		strb	r3, [r0, #17]
 204:Middlewares/ST/STM32_USB_Host_Library/Core/Src/usbh_ctlreq.c **** 
 1527              		.loc 1 204 5 is_stmt 1 view .LVU530
 204:Middlewares/ST/STM32_USB_Host_Library/Core/Src/usbh_ctlreq.c **** 
 1528              		.loc 1 204 37 is_stmt 0 view .LVU531
 1529 0022 4482     		strh	r4, [r0, #18]	@ movhi
 206:Middlewares/ST/STM32_USB_Host_Library/Core/Src/usbh_ctlreq.c ****     {
 1530              		.loc 1 206 5 is_stmt 1 view .LVU532
 206:Middlewares/ST/STM32_USB_Host_Library/Core/Src/usbh_ctlreq.c ****     {
 1531              		.loc 1 206 8 is_stmt 0 view .LVU533
ARM GAS  /tmp/ccXjZKHH.s 			page 54


 1532 0024 04F47F44 		and	r4, r4, #65280
 1533 0028 B4F5407F 		cmp	r4, #768
 1534 002c 03D0     		beq	.L118
 212:Middlewares/ST/STM32_USB_Host_Library/Core/Src/usbh_ctlreq.c ****     }
 1535              		.loc 1 212 7 is_stmt 1 view .LVU534
 212:Middlewares/ST/STM32_USB_Host_Library/Core/Src/usbh_ctlreq.c ****     }
 1536              		.loc 1 212 39 is_stmt 0 view .LVU535
 1537 002e 0023     		movs	r3, #0
 1538 0030 8382     		strh	r3, [r0, #20]	@ movhi
 1539              	.L115:
 214:Middlewares/ST/STM32_USB_Host_Library/Core/Src/usbh_ctlreq.c ****   }
 1540              		.loc 1 214 5 is_stmt 1 view .LVU536
 214:Middlewares/ST/STM32_USB_Host_Library/Core/Src/usbh_ctlreq.c ****   }
 1541              		.loc 1 214 38 is_stmt 0 view .LVU537
 1542 0032 C282     		strh	r2, [r0, #22]	@ movhi
 1543 0034 EDE7     		b	.L113
 1544              	.L118:
 208:Middlewares/ST/STM32_USB_Host_Library/Core/Src/usbh_ctlreq.c ****     }
 1545              		.loc 1 208 7 is_stmt 1 view .LVU538
 208:Middlewares/ST/STM32_USB_Host_Library/Core/Src/usbh_ctlreq.c ****     }
 1546              		.loc 1 208 39 is_stmt 0 view .LVU539
 1547 0036 40F20943 		movw	r3, #1033
 1548 003a 8382     		strh	r3, [r0, #20]	@ movhi
 1549 003c F9E7     		b	.L115
 1550              		.cfi_endproc
 1551              	.LFE136:
 1553              		.section	.text.USBH_Get_DevDesc,"ax",%progbits
 1554              		.align	1
 1555              		.global	USBH_Get_DevDesc
 1556              		.syntax unified
 1557              		.thumb
 1558              		.thumb_func
 1559              		.fpu fpv4-sp-d16
 1561              	USBH_Get_DevDesc:
 1562              	.LVL129:
 1563              	.LFB133:
 104:Middlewares/ST/STM32_USB_Host_Library/Core/Src/usbh_ctlreq.c ****   USBH_StatusTypeDef status;
 1564              		.loc 1 104 1 is_stmt 1 view -0
 1565              		.cfi_startproc
 1566              		@ args = 0, pretend = 0, frame = 0
 1567              		@ frame_needed = 0, uses_anonymous_args = 0
 104:Middlewares/ST/STM32_USB_Host_Library/Core/Src/usbh_ctlreq.c ****   USBH_StatusTypeDef status;
 1568              		.loc 1 104 1 is_stmt 0 view .LVU541
 1569 0000 F0B5     		push	{r4, r5, r6, r7, lr}
 1570              	.LCFI17:
 1571              		.cfi_def_cfa_offset 20
 1572              		.cfi_offset 4, -20
 1573              		.cfi_offset 5, -16
 1574              		.cfi_offset 6, -12
 1575              		.cfi_offset 7, -8
 1576              		.cfi_offset 14, -4
 1577 0002 83B0     		sub	sp, sp, #12
 1578              	.LCFI18:
 1579              		.cfi_def_cfa_offset 32
 1580 0004 0446     		mov	r4, r0
 105:Middlewares/ST/STM32_USB_Host_Library/Core/Src/usbh_ctlreq.c **** 
 1581              		.loc 1 105 3 is_stmt 1 view .LVU542
ARM GAS  /tmp/ccXjZKHH.s 			page 55


 107:Middlewares/ST/STM32_USB_Host_Library/Core/Src/usbh_ctlreq.c ****                               USB_REQ_RECIPIENT_DEVICE | USB_REQ_TYPE_STANDARD,
 1582              		.loc 1 107 3 view .LVU543
 109:Middlewares/ST/STM32_USB_Host_Library/Core/Src/usbh_ctlreq.c ****                               (uint16_t)length);
 1583              		.loc 1 109 61 is_stmt 0 view .LVU544
 1584 0006 00F58E76 		add	r6, r0, #284
 107:Middlewares/ST/STM32_USB_Host_Library/Core/Src/usbh_ctlreq.c ****                               USB_REQ_RECIPIENT_DEVICE | USB_REQ_TYPE_STANDARD,
 1585              		.loc 1 107 12 view .LVU545
 1586 000a 0D46     		mov	r5, r1
 1587 000c 0091     		str	r1, [sp]
 1588 000e 3346     		mov	r3, r6
 1589 0010 4FF48072 		mov	r2, #256
 1590 0014 0021     		movs	r1, #0
 1591              	.LVL130:
 107:Middlewares/ST/STM32_USB_Host_Library/Core/Src/usbh_ctlreq.c ****                               USB_REQ_RECIPIENT_DEVICE | USB_REQ_TYPE_STANDARD,
 1592              		.loc 1 107 12 view .LVU546
 1593 0016 FFF7FEFF 		bl	USBH_GetDescriptor
 1594              	.LVL131:
 112:Middlewares/ST/STM32_USB_Host_Library/Core/Src/usbh_ctlreq.c ****   {
 1595              		.loc 1 112 3 is_stmt 1 view .LVU547
 112:Middlewares/ST/STM32_USB_Host_Library/Core/Src/usbh_ctlreq.c ****   {
 1596              		.loc 1 112 6 is_stmt 0 view .LVU548
 1597 001a 0746     		mov	r7, r0
 1598 001c 10B1     		cbz	r0, .L122
 1599              	.LVL132:
 1600              	.L120:
 119:Middlewares/ST/STM32_USB_Host_Library/Core/Src/usbh_ctlreq.c **** }
 1601              		.loc 1 119 3 is_stmt 1 view .LVU549
 120:Middlewares/ST/STM32_USB_Host_Library/Core/Src/usbh_ctlreq.c **** 
 1602              		.loc 1 120 1 is_stmt 0 view .LVU550
 1603 001e 3846     		mov	r0, r7
 1604 0020 03B0     		add	sp, sp, #12
 1605              	.LCFI19:
 1606              		.cfi_remember_state
 1607              		.cfi_def_cfa_offset 20
 1608              		@ sp needed
 1609 0022 F0BD     		pop	{r4, r5, r6, r7, pc}
 1610              	.LVL133:
 1611              	.L122:
 1612              	.LCFI20:
 1613              		.cfi_restore_state
 115:Middlewares/ST/STM32_USB_Host_Library/Core/Src/usbh_ctlreq.c ****                       (uint16_t)length);
 1614              		.loc 1 115 5 is_stmt 1 view .LVU551
 1615 0024 2A46     		mov	r2, r5
 1616 0026 3146     		mov	r1, r6
 1617 0028 04F22630 		addw	r0, r4, #806
 1618              	.LVL134:
 115:Middlewares/ST/STM32_USB_Host_Library/Core/Src/usbh_ctlreq.c ****                       (uint16_t)length);
 1619              		.loc 1 115 5 is_stmt 0 view .LVU552
 1620 002c FFF7FEFF 		bl	USBH_ParseDevDesc
 1621              	.LVL135:
 1622 0030 F5E7     		b	.L120
 1623              		.cfi_endproc
 1624              	.LFE133:
 1626              		.section	.text.USBH_Get_CfgDesc,"ax",%progbits
 1627              		.align	1
 1628              		.global	USBH_Get_CfgDesc
 1629              		.syntax unified
ARM GAS  /tmp/ccXjZKHH.s 			page 56


 1630              		.thumb
 1631              		.thumb_func
 1632              		.fpu fpv4-sp-d16
 1634              	USBH_Get_CfgDesc:
 1635              	.LVL136:
 1636              	.LFB134:
 135:Middlewares/ST/STM32_USB_Host_Library/Core/Src/usbh_ctlreq.c ****   USBH_StatusTypeDef status;
 1637              		.loc 1 135 1 is_stmt 1 view -0
 1638              		.cfi_startproc
 1639              		@ args = 0, pretend = 0, frame = 0
 1640              		@ frame_needed = 0, uses_anonymous_args = 0
 135:Middlewares/ST/STM32_USB_Host_Library/Core/Src/usbh_ctlreq.c ****   USBH_StatusTypeDef status;
 1641              		.loc 1 135 1 is_stmt 0 view .LVU554
 1642 0000 70B5     		push	{r4, r5, r6, lr}
 1643              	.LCFI21:
 1644              		.cfi_def_cfa_offset 16
 1645              		.cfi_offset 4, -16
 1646              		.cfi_offset 5, -12
 1647              		.cfi_offset 6, -8
 1648              		.cfi_offset 14, -4
 1649 0002 82B0     		sub	sp, sp, #8
 1650              	.LCFI22:
 1651              		.cfi_def_cfa_offset 24
 1652 0004 0446     		mov	r4, r0
 1653 0006 0D46     		mov	r5, r1
 136:Middlewares/ST/STM32_USB_Host_Library/Core/Src/usbh_ctlreq.c ****   uint8_t *pData = phost->device.CfgDesc_Raw;
 1654              		.loc 1 136 3 is_stmt 1 view .LVU555
 137:Middlewares/ST/STM32_USB_Host_Library/Core/Src/usbh_ctlreq.c **** 
 1655              		.loc 1 137 3 view .LVU556
 137:Middlewares/ST/STM32_USB_Host_Library/Core/Src/usbh_ctlreq.c **** 
 1656              		.loc 1 137 12 is_stmt 0 view .LVU557
 1657 0008 00F11C06 		add	r6, r0, #28
 1658              	.LVL137:
 139:Middlewares/ST/STM32_USB_Host_Library/Core/Src/usbh_ctlreq.c ****                               USB_DESC_CONFIGURATION, pData, length);
 1659              		.loc 1 139 3 is_stmt 1 view .LVU558
 139:Middlewares/ST/STM32_USB_Host_Library/Core/Src/usbh_ctlreq.c ****                               USB_DESC_CONFIGURATION, pData, length);
 1660              		.loc 1 139 12 is_stmt 0 view .LVU559
 1661 000c 0091     		str	r1, [sp]
 1662 000e 3346     		mov	r3, r6
 1663 0010 4FF40072 		mov	r2, #512
 1664 0014 0021     		movs	r1, #0
 1665              	.LVL138:
 139:Middlewares/ST/STM32_USB_Host_Library/Core/Src/usbh_ctlreq.c ****                               USB_DESC_CONFIGURATION, pData, length);
 1666              		.loc 1 139 12 view .LVU560
 1667 0016 FFF7FEFF 		bl	USBH_GetDescriptor
 1668              	.LVL139:
 142:Middlewares/ST/STM32_USB_Host_Library/Core/Src/usbh_ctlreq.c ****   {
 1669              		.loc 1 142 3 is_stmt 1 view .LVU561
 142:Middlewares/ST/STM32_USB_Host_Library/Core/Src/usbh_ctlreq.c ****   {
 1670              		.loc 1 142 6 is_stmt 0 view .LVU562
 1671 001a 08B1     		cbz	r0, .L126
 1672              	.LVL140:
 1673              	.L124:
 148:Middlewares/ST/STM32_USB_Host_Library/Core/Src/usbh_ctlreq.c **** }
 1674              		.loc 1 148 3 is_stmt 1 view .LVU563
 149:Middlewares/ST/STM32_USB_Host_Library/Core/Src/usbh_ctlreq.c **** 
 1675              		.loc 1 149 1 is_stmt 0 view .LVU564
ARM GAS  /tmp/ccXjZKHH.s 			page 57


 1676 001c 02B0     		add	sp, sp, #8
 1677              	.LCFI23:
 1678              		.cfi_remember_state
 1679              		.cfi_def_cfa_offset 16
 1680              		@ sp needed
 1681 001e 70BD     		pop	{r4, r5, r6, pc}
 1682              	.LVL141:
 1683              	.L126:
 1684              	.LCFI24:
 1685              		.cfi_restore_state
 145:Middlewares/ST/STM32_USB_Host_Library/Core/Src/usbh_ctlreq.c ****   }
 1686              		.loc 1 145 5 is_stmt 1 view .LVU565
 145:Middlewares/ST/STM32_USB_Host_Library/Core/Src/usbh_ctlreq.c ****   }
 1687              		.loc 1 145 14 is_stmt 0 view .LVU566
 1688 0020 2A46     		mov	r2, r5
 1689 0022 3146     		mov	r1, r6
 1690 0024 2046     		mov	r0, r4
 1691 0026 FFF7FEFF 		bl	USBH_ParseCfgDesc
 1692              	.LVL142:
 145:Middlewares/ST/STM32_USB_Host_Library/Core/Src/usbh_ctlreq.c ****   }
 1693              		.loc 1 145 14 view .LVU567
 1694 002a F7E7     		b	.L124
 1695              		.cfi_endproc
 1696              	.LFE134:
 1698              		.section	.text.USBH_Get_StringDesc,"ax",%progbits
 1699              		.align	1
 1700              		.global	USBH_Get_StringDesc
 1701              		.syntax unified
 1702              		.thumb
 1703              		.thumb_func
 1704              		.fpu fpv4-sp-d16
 1706              	USBH_Get_StringDesc:
 1707              	.LVL143:
 1708              	.LFB135:
 165:Middlewares/ST/STM32_USB_Host_Library/Core/Src/usbh_ctlreq.c ****   USBH_StatusTypeDef status;
 1709              		.loc 1 165 1 is_stmt 1 view -0
 1710              		.cfi_startproc
 1711              		@ args = 0, pretend = 0, frame = 0
 1712              		@ frame_needed = 0, uses_anonymous_args = 0
 165:Middlewares/ST/STM32_USB_Host_Library/Core/Src/usbh_ctlreq.c ****   USBH_StatusTypeDef status;
 1713              		.loc 1 165 1 is_stmt 0 view .LVU569
 1714 0000 F0B5     		push	{r4, r5, r6, r7, lr}
 1715              	.LCFI25:
 1716              		.cfi_def_cfa_offset 20
 1717              		.cfi_offset 4, -20
 1718              		.cfi_offset 5, -16
 1719              		.cfi_offset 6, -12
 1720              		.cfi_offset 7, -8
 1721              		.cfi_offset 14, -4
 1722 0002 83B0     		sub	sp, sp, #12
 1723              	.LCFI26:
 1724              		.cfi_def_cfa_offset 32
 1725 0004 1646     		mov	r6, r2
 1726 0006 1D46     		mov	r5, r3
 166:Middlewares/ST/STM32_USB_Host_Library/Core/Src/usbh_ctlreq.c **** 
 1727              		.loc 1 166 3 is_stmt 1 view .LVU570
 168:Middlewares/ST/STM32_USB_Host_Library/Core/Src/usbh_ctlreq.c ****                               USB_REQ_RECIPIENT_DEVICE | USB_REQ_TYPE_STANDARD,
ARM GAS  /tmp/ccXjZKHH.s 			page 58


 1728              		.loc 1 168 3 view .LVU571
 171:Middlewares/ST/STM32_USB_Host_Library/Core/Src/usbh_ctlreq.c **** 
 1729              		.loc 1 171 44 is_stmt 0 view .LVU572
 1730 0008 00F58E74 		add	r4, r0, #284
 168:Middlewares/ST/STM32_USB_Host_Library/Core/Src/usbh_ctlreq.c ****                               USB_REQ_RECIPIENT_DEVICE | USB_REQ_TYPE_STANDARD,
 1731              		.loc 1 168 12 view .LVU573
 1732 000c 0093     		str	r3, [sp]
 1733 000e 2346     		mov	r3, r4
 1734              	.LVL144:
 168:Middlewares/ST/STM32_USB_Host_Library/Core/Src/usbh_ctlreq.c ****                               USB_REQ_RECIPIENT_DEVICE | USB_REQ_TYPE_STANDARD,
 1735              		.loc 1 168 12 view .LVU574
 1736 0010 41F44072 		orr	r2, r1, #768
 1737              	.LVL145:
 168:Middlewares/ST/STM32_USB_Host_Library/Core/Src/usbh_ctlreq.c ****                               USB_REQ_RECIPIENT_DEVICE | USB_REQ_TYPE_STANDARD,
 1738              		.loc 1 168 12 view .LVU575
 1739 0014 0021     		movs	r1, #0
 1740              	.LVL146:
 168:Middlewares/ST/STM32_USB_Host_Library/Core/Src/usbh_ctlreq.c ****                               USB_REQ_RECIPIENT_DEVICE | USB_REQ_TYPE_STANDARD,
 1741              		.loc 1 168 12 view .LVU576
 1742 0016 FFF7FEFF 		bl	USBH_GetDescriptor
 1743              	.LVL147:
 173:Middlewares/ST/STM32_USB_Host_Library/Core/Src/usbh_ctlreq.c ****   {
 1744              		.loc 1 173 3 is_stmt 1 view .LVU577
 173:Middlewares/ST/STM32_USB_Host_Library/Core/Src/usbh_ctlreq.c ****   {
 1745              		.loc 1 173 6 is_stmt 0 view .LVU578
 1746 001a 0746     		mov	r7, r0
 1747 001c 10B1     		cbz	r0, .L130
 1748              	.LVL148:
 1749              	.L128:
 179:Middlewares/ST/STM32_USB_Host_Library/Core/Src/usbh_ctlreq.c **** }
 1750              		.loc 1 179 3 is_stmt 1 view .LVU579
 180:Middlewares/ST/STM32_USB_Host_Library/Core/Src/usbh_ctlreq.c **** 
 1751              		.loc 1 180 1 is_stmt 0 view .LVU580
 1752 001e 3846     		mov	r0, r7
 1753 0020 03B0     		add	sp, sp, #12
 1754              	.LCFI27:
 1755              		.cfi_remember_state
 1756              		.cfi_def_cfa_offset 20
 1757              		@ sp needed
 1758 0022 F0BD     		pop	{r4, r5, r6, r7, pc}
 1759              	.LVL149:
 1760              	.L130:
 1761              	.LCFI28:
 1762              		.cfi_restore_state
 176:Middlewares/ST/STM32_USB_Host_Library/Core/Src/usbh_ctlreq.c ****   }
 1763              		.loc 1 176 5 is_stmt 1 view .LVU581
 1764 0024 2A46     		mov	r2, r5
 1765 0026 3146     		mov	r1, r6
 1766 0028 2046     		mov	r0, r4
 1767              	.LVL150:
 176:Middlewares/ST/STM32_USB_Host_Library/Core/Src/usbh_ctlreq.c ****   }
 1768              		.loc 1 176 5 is_stmt 0 view .LVU582
 1769 002a FFF7FEFF 		bl	USBH_ParseStringDesc
 1770              	.LVL151:
 1771 002e F6E7     		b	.L128
 1772              		.cfi_endproc
 1773              	.LFE135:
ARM GAS  /tmp/ccXjZKHH.s 			page 59


 1775              		.section	.text.USBH_SetAddress,"ax",%progbits
 1776              		.align	1
 1777              		.global	USBH_SetAddress
 1778              		.syntax unified
 1779              		.thumb
 1780              		.thumb_func
 1781              		.fpu fpv4-sp-d16
 1783              	USBH_SetAddress:
 1784              	.LVL152:
 1785              	.LFB137:
 230:Middlewares/ST/STM32_USB_Host_Library/Core/Src/usbh_ctlreq.c ****   if (phost->RequestState == CMD_SEND)
 1786              		.loc 1 230 1 is_stmt 1 view -0
 1787              		.cfi_startproc
 1788              		@ args = 0, pretend = 0, frame = 0
 1789              		@ frame_needed = 0, uses_anonymous_args = 0
 230:Middlewares/ST/STM32_USB_Host_Library/Core/Src/usbh_ctlreq.c ****   if (phost->RequestState == CMD_SEND)
 1790              		.loc 1 230 1 is_stmt 0 view .LVU584
 1791 0000 08B5     		push	{r3, lr}
 1792              	.LCFI29:
 1793              		.cfi_def_cfa_offset 8
 1794              		.cfi_offset 3, -8
 1795              		.cfi_offset 14, -4
 231:Middlewares/ST/STM32_USB_Host_Library/Core/Src/usbh_ctlreq.c ****   {
 1796              		.loc 1 231 3 is_stmt 1 view .LVU585
 231:Middlewares/ST/STM32_USB_Host_Library/Core/Src/usbh_ctlreq.c ****   {
 1797              		.loc 1 231 12 is_stmt 0 view .LVU586
 1798 0002 8378     		ldrb	r3, [r0, #2]	@ zero_extendqisi2
 231:Middlewares/ST/STM32_USB_Host_Library/Core/Src/usbh_ctlreq.c ****   {
 1799              		.loc 1 231 6 view .LVU587
 1800 0004 012B     		cmp	r3, #1
 1801 0006 04D0     		beq	.L134
 1802              	.L132:
 243:Middlewares/ST/STM32_USB_Host_Library/Core/Src/usbh_ctlreq.c **** }
 1803              		.loc 1 243 3 is_stmt 1 view .LVU588
 243:Middlewares/ST/STM32_USB_Host_Library/Core/Src/usbh_ctlreq.c **** }
 1804              		.loc 1 243 10 is_stmt 0 view .LVU589
 1805 0008 0022     		movs	r2, #0
 1806 000a 1146     		mov	r1, r2
 1807              	.LVL153:
 243:Middlewares/ST/STM32_USB_Host_Library/Core/Src/usbh_ctlreq.c **** }
 1808              		.loc 1 243 10 view .LVU590
 1809 000c FFF7FEFF 		bl	USBH_CtlReq
 1810              	.LVL154:
 244:Middlewares/ST/STM32_USB_Host_Library/Core/Src/usbh_ctlreq.c **** 
 1811              		.loc 1 244 1 view .LVU591
 1812 0010 08BD     		pop	{r3, pc}
 1813              	.LVL155:
 1814              	.L134:
 233:Middlewares/ST/STM32_USB_Host_Library/Core/Src/usbh_ctlreq.c ****                                            USB_REQ_TYPE_STANDARD;
 1815              		.loc 1 233 5 is_stmt 1 view .LVU592
 233:Middlewares/ST/STM32_USB_Host_Library/Core/Src/usbh_ctlreq.c ****                                            USB_REQ_TYPE_STANDARD;
 1816              		.loc 1 233 42 is_stmt 0 view .LVU593
 1817 0012 0023     		movs	r3, #0
 1818 0014 0374     		strb	r3, [r0, #16]
 236:Middlewares/ST/STM32_USB_Host_Library/Core/Src/usbh_ctlreq.c **** 
 1819              		.loc 1 236 5 is_stmt 1 view .LVU594
 236:Middlewares/ST/STM32_USB_Host_Library/Core/Src/usbh_ctlreq.c **** 
ARM GAS  /tmp/ccXjZKHH.s 			page 60


 1820              		.loc 1 236 37 is_stmt 0 view .LVU595
 1821 0016 0522     		movs	r2, #5
 1822 0018 4274     		strb	r2, [r0, #17]
 238:Middlewares/ST/STM32_USB_Host_Library/Core/Src/usbh_ctlreq.c ****     phost->Control.setup.b.wIndex.w = 0U;
 1823              		.loc 1 238 5 is_stmt 1 view .LVU596
 238:Middlewares/ST/STM32_USB_Host_Library/Core/Src/usbh_ctlreq.c ****     phost->Control.setup.b.wIndex.w = 0U;
 1824              		.loc 1 238 37 is_stmt 0 view .LVU597
 1825 001a 4182     		strh	r1, [r0, #18]	@ movhi
 239:Middlewares/ST/STM32_USB_Host_Library/Core/Src/usbh_ctlreq.c ****     phost->Control.setup.b.wLength.w = 0U;
 1826              		.loc 1 239 5 is_stmt 1 view .LVU598
 239:Middlewares/ST/STM32_USB_Host_Library/Core/Src/usbh_ctlreq.c ****     phost->Control.setup.b.wLength.w = 0U;
 1827              		.loc 1 239 37 is_stmt 0 view .LVU599
 1828 001c 8382     		strh	r3, [r0, #20]	@ movhi
 240:Middlewares/ST/STM32_USB_Host_Library/Core/Src/usbh_ctlreq.c ****   }
 1829              		.loc 1 240 5 is_stmt 1 view .LVU600
 240:Middlewares/ST/STM32_USB_Host_Library/Core/Src/usbh_ctlreq.c ****   }
 1830              		.loc 1 240 38 is_stmt 0 view .LVU601
 1831 001e C382     		strh	r3, [r0, #22]	@ movhi
 1832 0020 F2E7     		b	.L132
 1833              		.cfi_endproc
 1834              	.LFE137:
 1836              		.section	.text.USBH_SetCfg,"ax",%progbits
 1837              		.align	1
 1838              		.global	USBH_SetCfg
 1839              		.syntax unified
 1840              		.thumb
 1841              		.thumb_func
 1842              		.fpu fpv4-sp-d16
 1844              	USBH_SetCfg:
 1845              	.LVL156:
 1846              	.LFB138:
 255:Middlewares/ST/STM32_USB_Host_Library/Core/Src/usbh_ctlreq.c ****   if (phost->RequestState == CMD_SEND)
 1847              		.loc 1 255 1 is_stmt 1 view -0
 1848              		.cfi_startproc
 1849              		@ args = 0, pretend = 0, frame = 0
 1850              		@ frame_needed = 0, uses_anonymous_args = 0
 255:Middlewares/ST/STM32_USB_Host_Library/Core/Src/usbh_ctlreq.c ****   if (phost->RequestState == CMD_SEND)
 1851              		.loc 1 255 1 is_stmt 0 view .LVU603
 1852 0000 08B5     		push	{r3, lr}
 1853              	.LCFI30:
 1854              		.cfi_def_cfa_offset 8
 1855              		.cfi_offset 3, -8
 1856              		.cfi_offset 14, -4
 256:Middlewares/ST/STM32_USB_Host_Library/Core/Src/usbh_ctlreq.c ****   {
 1857              		.loc 1 256 3 is_stmt 1 view .LVU604
 256:Middlewares/ST/STM32_USB_Host_Library/Core/Src/usbh_ctlreq.c ****   {
 1858              		.loc 1 256 12 is_stmt 0 view .LVU605
 1859 0002 8378     		ldrb	r3, [r0, #2]	@ zero_extendqisi2
 256:Middlewares/ST/STM32_USB_Host_Library/Core/Src/usbh_ctlreq.c ****   {
 1860              		.loc 1 256 6 view .LVU606
 1861 0004 012B     		cmp	r3, #1
 1862 0006 04D0     		beq	.L138
 1863              	.L136:
 267:Middlewares/ST/STM32_USB_Host_Library/Core/Src/usbh_ctlreq.c **** }
 1864              		.loc 1 267 3 is_stmt 1 view .LVU607
 267:Middlewares/ST/STM32_USB_Host_Library/Core/Src/usbh_ctlreq.c **** }
 1865              		.loc 1 267 10 is_stmt 0 view .LVU608
ARM GAS  /tmp/ccXjZKHH.s 			page 61


 1866 0008 0022     		movs	r2, #0
 1867 000a 1146     		mov	r1, r2
 1868              	.LVL157:
 267:Middlewares/ST/STM32_USB_Host_Library/Core/Src/usbh_ctlreq.c **** }
 1869              		.loc 1 267 10 view .LVU609
 1870 000c FFF7FEFF 		bl	USBH_CtlReq
 1871              	.LVL158:
 268:Middlewares/ST/STM32_USB_Host_Library/Core/Src/usbh_ctlreq.c **** 
 1872              		.loc 1 268 1 view .LVU610
 1873 0010 08BD     		pop	{r3, pc}
 1874              	.LVL159:
 1875              	.L138:
 258:Middlewares/ST/STM32_USB_Host_Library/Core/Src/usbh_ctlreq.c ****                                            | USB_REQ_TYPE_STANDARD;
 1876              		.loc 1 258 5 is_stmt 1 view .LVU611
 258:Middlewares/ST/STM32_USB_Host_Library/Core/Src/usbh_ctlreq.c ****                                            | USB_REQ_TYPE_STANDARD;
 1877              		.loc 1 258 42 is_stmt 0 view .LVU612
 1878 0012 0023     		movs	r3, #0
 1879 0014 0374     		strb	r3, [r0, #16]
 261:Middlewares/ST/STM32_USB_Host_Library/Core/Src/usbh_ctlreq.c ****     phost->Control.setup.b.wValue.w = cfg_idx;
 1880              		.loc 1 261 5 is_stmt 1 view .LVU613
 261:Middlewares/ST/STM32_USB_Host_Library/Core/Src/usbh_ctlreq.c ****     phost->Control.setup.b.wValue.w = cfg_idx;
 1881              		.loc 1 261 37 is_stmt 0 view .LVU614
 1882 0016 0922     		movs	r2, #9
 1883 0018 4274     		strb	r2, [r0, #17]
 262:Middlewares/ST/STM32_USB_Host_Library/Core/Src/usbh_ctlreq.c ****     phost->Control.setup.b.wIndex.w = 0U;
 1884              		.loc 1 262 5 is_stmt 1 view .LVU615
 262:Middlewares/ST/STM32_USB_Host_Library/Core/Src/usbh_ctlreq.c ****     phost->Control.setup.b.wIndex.w = 0U;
 1885              		.loc 1 262 37 is_stmt 0 view .LVU616
 1886 001a 4182     		strh	r1, [r0, #18]	@ movhi
 263:Middlewares/ST/STM32_USB_Host_Library/Core/Src/usbh_ctlreq.c ****     phost->Control.setup.b.wLength.w = 0U;
 1887              		.loc 1 263 5 is_stmt 1 view .LVU617
 263:Middlewares/ST/STM32_USB_Host_Library/Core/Src/usbh_ctlreq.c ****     phost->Control.setup.b.wLength.w = 0U;
 1888              		.loc 1 263 37 is_stmt 0 view .LVU618
 1889 001c 8382     		strh	r3, [r0, #20]	@ movhi
 264:Middlewares/ST/STM32_USB_Host_Library/Core/Src/usbh_ctlreq.c ****   }
 1890              		.loc 1 264 5 is_stmt 1 view .LVU619
 264:Middlewares/ST/STM32_USB_Host_Library/Core/Src/usbh_ctlreq.c ****   }
 1891              		.loc 1 264 38 is_stmt 0 view .LVU620
 1892 001e C382     		strh	r3, [r0, #22]	@ movhi
 1893 0020 F2E7     		b	.L136
 1894              		.cfi_endproc
 1895              	.LFE138:
 1897              		.section	.text.USBH_SetInterface,"ax",%progbits
 1898              		.align	1
 1899              		.global	USBH_SetInterface
 1900              		.syntax unified
 1901              		.thumb
 1902              		.thumb_func
 1903              		.fpu fpv4-sp-d16
 1905              	USBH_SetInterface:
 1906              	.LVL160:
 1907              	.LFB139:
 280:Middlewares/ST/STM32_USB_Host_Library/Core/Src/usbh_ctlreq.c ****   if (phost->RequestState == CMD_SEND)
 1908              		.loc 1 280 1 is_stmt 1 view -0
 1909              		.cfi_startproc
 1910              		@ args = 0, pretend = 0, frame = 0
 1911              		@ frame_needed = 0, uses_anonymous_args = 0
ARM GAS  /tmp/ccXjZKHH.s 			page 62


 280:Middlewares/ST/STM32_USB_Host_Library/Core/Src/usbh_ctlreq.c ****   if (phost->RequestState == CMD_SEND)
 1912              		.loc 1 280 1 is_stmt 0 view .LVU622
 1913 0000 08B5     		push	{r3, lr}
 1914              	.LCFI31:
 1915              		.cfi_def_cfa_offset 8
 1916              		.cfi_offset 3, -8
 1917              		.cfi_offset 14, -4
 281:Middlewares/ST/STM32_USB_Host_Library/Core/Src/usbh_ctlreq.c ****   {
 1918              		.loc 1 281 3 is_stmt 1 view .LVU623
 281:Middlewares/ST/STM32_USB_Host_Library/Core/Src/usbh_ctlreq.c ****   {
 1919              		.loc 1 281 12 is_stmt 0 view .LVU624
 1920 0002 8378     		ldrb	r3, [r0, #2]	@ zero_extendqisi2
 281:Middlewares/ST/STM32_USB_Host_Library/Core/Src/usbh_ctlreq.c ****   {
 1921              		.loc 1 281 6 view .LVU625
 1922 0004 012B     		cmp	r3, #1
 1923 0006 04D0     		beq	.L142
 1924              	.L140:
 292:Middlewares/ST/STM32_USB_Host_Library/Core/Src/usbh_ctlreq.c **** }
 1925              		.loc 1 292 3 is_stmt 1 view .LVU626
 292:Middlewares/ST/STM32_USB_Host_Library/Core/Src/usbh_ctlreq.c **** }
 1926              		.loc 1 292 10 is_stmt 0 view .LVU627
 1927 0008 0022     		movs	r2, #0
 1928              	.LVL161:
 292:Middlewares/ST/STM32_USB_Host_Library/Core/Src/usbh_ctlreq.c **** }
 1929              		.loc 1 292 10 view .LVU628
 1930 000a 1146     		mov	r1, r2
 1931              	.LVL162:
 292:Middlewares/ST/STM32_USB_Host_Library/Core/Src/usbh_ctlreq.c **** }
 1932              		.loc 1 292 10 view .LVU629
 1933 000c FFF7FEFF 		bl	USBH_CtlReq
 1934              	.LVL163:
 293:Middlewares/ST/STM32_USB_Host_Library/Core/Src/usbh_ctlreq.c **** 
 1935              		.loc 1 293 1 view .LVU630
 1936 0010 08BD     		pop	{r3, pc}
 1937              	.LVL164:
 1938              	.L142:
 283:Middlewares/ST/STM32_USB_Host_Library/Core/Src/usbh_ctlreq.c ****                                            | USB_REQ_TYPE_STANDARD;
 1939              		.loc 1 283 5 is_stmt 1 view .LVU631
 283:Middlewares/ST/STM32_USB_Host_Library/Core/Src/usbh_ctlreq.c ****                                            | USB_REQ_TYPE_STANDARD;
 1940              		.loc 1 283 42 is_stmt 0 view .LVU632
 1941 0012 0374     		strb	r3, [r0, #16]
 286:Middlewares/ST/STM32_USB_Host_Library/Core/Src/usbh_ctlreq.c ****     phost->Control.setup.b.wValue.w = altSetting;
 1942              		.loc 1 286 5 is_stmt 1 view .LVU633
 286:Middlewares/ST/STM32_USB_Host_Library/Core/Src/usbh_ctlreq.c ****     phost->Control.setup.b.wValue.w = altSetting;
 1943              		.loc 1 286 37 is_stmt 0 view .LVU634
 1944 0014 0B23     		movs	r3, #11
 1945 0016 4374     		strb	r3, [r0, #17]
 287:Middlewares/ST/STM32_USB_Host_Library/Core/Src/usbh_ctlreq.c ****     phost->Control.setup.b.wIndex.w = ep_num;
 1946              		.loc 1 287 5 is_stmt 1 view .LVU635
 287:Middlewares/ST/STM32_USB_Host_Library/Core/Src/usbh_ctlreq.c ****     phost->Control.setup.b.wIndex.w = ep_num;
 1947              		.loc 1 287 37 is_stmt 0 view .LVU636
 1948 0018 4282     		strh	r2, [r0, #18]	@ movhi
 288:Middlewares/ST/STM32_USB_Host_Library/Core/Src/usbh_ctlreq.c ****     phost->Control.setup.b.wLength.w = 0U;
 1949              		.loc 1 288 5 is_stmt 1 view .LVU637
 288:Middlewares/ST/STM32_USB_Host_Library/Core/Src/usbh_ctlreq.c ****     phost->Control.setup.b.wLength.w = 0U;
 1950              		.loc 1 288 37 is_stmt 0 view .LVU638
 1951 001a 8182     		strh	r1, [r0, #20]	@ movhi
ARM GAS  /tmp/ccXjZKHH.s 			page 63


 289:Middlewares/ST/STM32_USB_Host_Library/Core/Src/usbh_ctlreq.c ****   }
 1952              		.loc 1 289 5 is_stmt 1 view .LVU639
 289:Middlewares/ST/STM32_USB_Host_Library/Core/Src/usbh_ctlreq.c ****   }
 1953              		.loc 1 289 38 is_stmt 0 view .LVU640
 1954 001c 0023     		movs	r3, #0
 1955 001e C382     		strh	r3, [r0, #22]	@ movhi
 1956 0020 F2E7     		b	.L140
 1957              		.cfi_endproc
 1958              	.LFE139:
 1960              		.section	.text.USBH_SetFeature,"ax",%progbits
 1961              		.align	1
 1962              		.global	USBH_SetFeature
 1963              		.syntax unified
 1964              		.thumb
 1965              		.thumb_func
 1966              		.fpu fpv4-sp-d16
 1968              	USBH_SetFeature:
 1969              	.LVL165:
 1970              	.LFB140:
 304:Middlewares/ST/STM32_USB_Host_Library/Core/Src/usbh_ctlreq.c ****   if (phost->RequestState == CMD_SEND)
 1971              		.loc 1 304 1 is_stmt 1 view -0
 1972              		.cfi_startproc
 1973              		@ args = 0, pretend = 0, frame = 0
 1974              		@ frame_needed = 0, uses_anonymous_args = 0
 304:Middlewares/ST/STM32_USB_Host_Library/Core/Src/usbh_ctlreq.c ****   if (phost->RequestState == CMD_SEND)
 1975              		.loc 1 304 1 is_stmt 0 view .LVU642
 1976 0000 08B5     		push	{r3, lr}
 1977              	.LCFI32:
 1978              		.cfi_def_cfa_offset 8
 1979              		.cfi_offset 3, -8
 1980              		.cfi_offset 14, -4
 305:Middlewares/ST/STM32_USB_Host_Library/Core/Src/usbh_ctlreq.c ****   {
 1981              		.loc 1 305 3 is_stmt 1 view .LVU643
 305:Middlewares/ST/STM32_USB_Host_Library/Core/Src/usbh_ctlreq.c ****   {
 1982              		.loc 1 305 12 is_stmt 0 view .LVU644
 1983 0002 8378     		ldrb	r3, [r0, #2]	@ zero_extendqisi2
 305:Middlewares/ST/STM32_USB_Host_Library/Core/Src/usbh_ctlreq.c ****   {
 1984              		.loc 1 305 6 view .LVU645
 1985 0004 012B     		cmp	r3, #1
 1986 0006 04D0     		beq	.L146
 1987              	.L144:
 316:Middlewares/ST/STM32_USB_Host_Library/Core/Src/usbh_ctlreq.c **** }
 1988              		.loc 1 316 3 is_stmt 1 view .LVU646
 316:Middlewares/ST/STM32_USB_Host_Library/Core/Src/usbh_ctlreq.c **** }
 1989              		.loc 1 316 10 is_stmt 0 view .LVU647
 1990 0008 0022     		movs	r2, #0
 1991 000a 1146     		mov	r1, r2
 1992              	.LVL166:
 316:Middlewares/ST/STM32_USB_Host_Library/Core/Src/usbh_ctlreq.c **** }
 1993              		.loc 1 316 10 view .LVU648
 1994 000c FFF7FEFF 		bl	USBH_CtlReq
 1995              	.LVL167:
 317:Middlewares/ST/STM32_USB_Host_Library/Core/Src/usbh_ctlreq.c **** 
 1996              		.loc 1 317 1 view .LVU649
 1997 0010 08BD     		pop	{r3, pc}
 1998              	.LVL168:
 1999              	.L146:
ARM GAS  /tmp/ccXjZKHH.s 			page 64


 307:Middlewares/ST/STM32_USB_Host_Library/Core/Src/usbh_ctlreq.c ****                                            | USB_REQ_TYPE_STANDARD;
 2000              		.loc 1 307 5 is_stmt 1 view .LVU650
 307:Middlewares/ST/STM32_USB_Host_Library/Core/Src/usbh_ctlreq.c ****                                            | USB_REQ_TYPE_STANDARD;
 2001              		.loc 1 307 42 is_stmt 0 view .LVU651
 2002 0012 0023     		movs	r3, #0
 2003 0014 0374     		strb	r3, [r0, #16]
 310:Middlewares/ST/STM32_USB_Host_Library/Core/Src/usbh_ctlreq.c ****     phost->Control.setup.b.wValue.w = wValue;
 2004              		.loc 1 310 5 is_stmt 1 view .LVU652
 310:Middlewares/ST/STM32_USB_Host_Library/Core/Src/usbh_ctlreq.c ****     phost->Control.setup.b.wValue.w = wValue;
 2005              		.loc 1 310 37 is_stmt 0 view .LVU653
 2006 0016 0322     		movs	r2, #3
 2007 0018 4274     		strb	r2, [r0, #17]
 311:Middlewares/ST/STM32_USB_Host_Library/Core/Src/usbh_ctlreq.c ****     phost->Control.setup.b.wIndex.w = 0U;
 2008              		.loc 1 311 5 is_stmt 1 view .LVU654
 311:Middlewares/ST/STM32_USB_Host_Library/Core/Src/usbh_ctlreq.c ****     phost->Control.setup.b.wIndex.w = 0U;
 2009              		.loc 1 311 37 is_stmt 0 view .LVU655
 2010 001a 4182     		strh	r1, [r0, #18]	@ movhi
 312:Middlewares/ST/STM32_USB_Host_Library/Core/Src/usbh_ctlreq.c ****     phost->Control.setup.b.wLength.w = 0U;
 2011              		.loc 1 312 5 is_stmt 1 view .LVU656
 312:Middlewares/ST/STM32_USB_Host_Library/Core/Src/usbh_ctlreq.c ****     phost->Control.setup.b.wLength.w = 0U;
 2012              		.loc 1 312 37 is_stmt 0 view .LVU657
 2013 001c 8382     		strh	r3, [r0, #20]	@ movhi
 313:Middlewares/ST/STM32_USB_Host_Library/Core/Src/usbh_ctlreq.c ****   }
 2014              		.loc 1 313 5 is_stmt 1 view .LVU658
 313:Middlewares/ST/STM32_USB_Host_Library/Core/Src/usbh_ctlreq.c ****   }
 2015              		.loc 1 313 38 is_stmt 0 view .LVU659
 2016 001e C382     		strh	r3, [r0, #22]	@ movhi
 2017 0020 F2E7     		b	.L144
 2018              		.cfi_endproc
 2019              	.LFE140:
 2021              		.section	.text.USBH_ClrFeature,"ax",%progbits
 2022              		.align	1
 2023              		.global	USBH_ClrFeature
 2024              		.syntax unified
 2025              		.thumb
 2026              		.thumb_func
 2027              		.fpu fpv4-sp-d16
 2029              	USBH_ClrFeature:
 2030              	.LVL169:
 2031              	.LFB141:
 329:Middlewares/ST/STM32_USB_Host_Library/Core/Src/usbh_ctlreq.c ****   if (phost->RequestState == CMD_SEND)
 2032              		.loc 1 329 1 is_stmt 1 view -0
 2033              		.cfi_startproc
 2034              		@ args = 0, pretend = 0, frame = 0
 2035              		@ frame_needed = 0, uses_anonymous_args = 0
 329:Middlewares/ST/STM32_USB_Host_Library/Core/Src/usbh_ctlreq.c ****   if (phost->RequestState == CMD_SEND)
 2036              		.loc 1 329 1 is_stmt 0 view .LVU661
 2037 0000 08B5     		push	{r3, lr}
 2038              	.LCFI33:
 2039              		.cfi_def_cfa_offset 8
 2040              		.cfi_offset 3, -8
 2041              		.cfi_offset 14, -4
 330:Middlewares/ST/STM32_USB_Host_Library/Core/Src/usbh_ctlreq.c ****   {
 2042              		.loc 1 330 3 is_stmt 1 view .LVU662
 330:Middlewares/ST/STM32_USB_Host_Library/Core/Src/usbh_ctlreq.c ****   {
 2043              		.loc 1 330 12 is_stmt 0 view .LVU663
 2044 0002 8378     		ldrb	r3, [r0, #2]	@ zero_extendqisi2
ARM GAS  /tmp/ccXjZKHH.s 			page 65


 330:Middlewares/ST/STM32_USB_Host_Library/Core/Src/usbh_ctlreq.c ****   {
 2045              		.loc 1 330 6 view .LVU664
 2046 0004 012B     		cmp	r3, #1
 2047 0006 04D0     		beq	.L150
 2048              	.L148:
 340:Middlewares/ST/STM32_USB_Host_Library/Core/Src/usbh_ctlreq.c **** }
 2049              		.loc 1 340 3 is_stmt 1 view .LVU665
 340:Middlewares/ST/STM32_USB_Host_Library/Core/Src/usbh_ctlreq.c **** }
 2050              		.loc 1 340 10 is_stmt 0 view .LVU666
 2051 0008 0022     		movs	r2, #0
 2052 000a 1146     		mov	r1, r2
 2053              	.LVL170:
 340:Middlewares/ST/STM32_USB_Host_Library/Core/Src/usbh_ctlreq.c **** }
 2054              		.loc 1 340 10 view .LVU667
 2055 000c FFF7FEFF 		bl	USBH_CtlReq
 2056              	.LVL171:
 341:Middlewares/ST/STM32_USB_Host_Library/Core/Src/usbh_ctlreq.c **** 
 2057              		.loc 1 341 1 view .LVU668
 2058 0010 08BD     		pop	{r3, pc}
 2059              	.LVL172:
 2060              	.L150:
 332:Middlewares/ST/STM32_USB_Host_Library/Core/Src/usbh_ctlreq.c ****                                            | USB_REQ_TYPE_STANDARD;
 2061              		.loc 1 332 5 is_stmt 1 view .LVU669
